(dp1
S'output'
p2
S"<type 'exceptions.SyntaxError'> invalid syntax (resultado.html, line 3)"
p3
sS'layer'
p4
S'/home/diego/web2py/applications/pesquisa/views/default/resultado.html'
p5
sS'code'
p6
S'response.write(" <html>\\n  <head>\\n    <title>Pesquisa Salarios Python</title>\\n    <hr>\\n\\tPesquisa Salarios Python<br>\\n\\t  <div>\\n\\t  <a href=\'/pesquisa/default/index\'>Formulario</a>|\\n\\t  <a href=\'/pesquisa/default/resultado\'>Resultado</a>\\n\\t  </div>\\n    <hr>\\n    <body>\\n        ", escape=False)\nresponse.write(\'\\n\\n\', escape=False)\nresponse.write(for d in dic:)\nresponse.write(\'\\n\\n\', escape=False)\nresponse.write(d)\nresponse.write(\'\\n\\n\', escape=False)\npass\nresponse.write(\'\\n\', escape=False)\nresponse.write("\\n     </body>\\n\\n     <hr>\\n     <div align=RIGHT><a href=\'http://web2py.com/\'>Powered By Web2py</a></div>\\n     <div align=RIGHT><a href=\'http://br.linkedin.com/in/diegotostes \'>Diego Tostes Linkedin Profile</a></div>\\n     <hr>\\n\\n</html>\\n", escape=False)'
p7
sS'snapshot'
p8
(dp9
S'exception'
p10
(dp11
S'__getslice__'
p12
S"<method-wrapper '__getslice__' of exceptions.SyntaxError object>"
p13
sS'text'
p14
S"'response.write(for d in dic:)\\n'"
p15
sS'__str__'
p16
S"<method-wrapper '__str__' of exceptions.SyntaxError object>"
p17
sS'__reduce__'
p18
S'<built-in method __reduce__ of exceptions.SyntaxError object>'
p19
sS'__dict__'
p20
S'{}'
p21
sS'__sizeof__'
p22
S'<built-in method __sizeof__ of exceptions.SyntaxError object>'
p23
sS'__init__'
p24
S"<method-wrapper '__init__' of exceptions.SyntaxError object>"
p25
sS'__setattr__'
p26
S"<method-wrapper '__setattr__' of exceptions.SyntaxError object>"
p27
sS'__reduce_ex__'
p28
S'<built-in method __reduce_ex__ of exceptions.SyntaxError object>'
p29
sS'__new__'
p30
S'<built-in method __new__ of type object>'
p31
sS'__format__'
p32
S'<built-in method __format__ of exceptions.SyntaxError object>'
p33
sS'__class__'
p34
S"<type 'exceptions.SyntaxError'>"
p35
sS'filename'
p36
S"'/home/diego/web2py/applications/pesquisa/views/default/resultado.html'"
p37
sS'lineno'
p38
S'3'
sS'msg'
p39
S"'invalid syntax'"
p40
sS'__doc__'
p41
S"'Invalid syntax.'"
p42
sS'__getitem__'
p43
S"<method-wrapper '__getitem__' of exceptions.SyntaxError object>"
p44
sS'__setstate__'
p45
S'<built-in method __setstate__ of exceptions.SyntaxError object>'
p46
sS'__getattribute__'
p47
S"<method-wrapper '__getattribute__' of exceptions.SyntaxError object>"
p48
sS'print_file_and_line'
p49
S'None'
p50
sS'args'
p51
S"('invalid syntax', ('/home/diego/web2py/applications/pesquisa/views/default/resultado.html', 3, 18, 'response.write(for d in dic:)\\n'))"
p52
sS'__subclasshook__'
p53
S'<built-in method __subclasshook__ of type object>'
p54
sS'offset'
p55
S'18'
p56
sS'__unicode__'
p57
S'<built-in method __unicode__ of exceptions.SyntaxError object>'
p58
sS'__delattr__'
p59
S"<method-wrapper '__delattr__' of exceptions.SyntaxError object>"
p60
sS'__repr__'
p61
S"<method-wrapper '__repr__' of exceptions.SyntaxError object>"
p62
sS'__hash__'
p63
S"<method-wrapper '__hash__' of exceptions.SyntaxError object>"
p64
ssS'evalue'
p65
S'invalid syntax (resultado.html, line 3)'
p66
sS'request'
p67
ccopy_reg
_reconstructor
p68
(cgluon.html
BEAUTIFY
p69
c__builtin__
object
p70
NtRp71
(dp72
S'attributes'
p73
(dp74
sS'components'
p75
(lp76
g68
(cgluon.html
TABLE
p77
g70
NtRp78
(dp79
g73
(dp80
S'level'
p81
I5
ssS'parent'
p82
Nsg75
(lp83
g68
(cgluon.html
TR
p84
g70
NtRp85
(dp86
g73
(dp87
sg82
g78
sg75
(lp88
g68
(cgluon.html
TD
p89
g70
NtRp90
(dp91
g73
(dp92
S'_style'
p93
S'font-weight:bold;vertical-align:top'
p94
ssg82
g85
sg75
(lp95
S'ajax'
p96
asbag68
(g89
g70
NtRp97
(dp98
g73
(dp99
S'_valign'
p100
S'top'
p101
ssg82
g85
sg75
(lp102
S':'
asbag68
(g89
g70
NtRp103
(dp104
g73
(dp105
sg82
g85
sg75
(lp106
g68
(g69
g70
NtRp107
(dp108
g73
(dp109
g81
I5
ssg82
g103
sg75
(lp110
S'False'
p111
asbasbasbag68
(g84
g70
NtRp112
(dp113
g73
(dp114
sg82
g78
sg75
(lp115
g68
(g89
g70
NtRp116
(dp117
g73
(dp118
g93
g94
ssg82
g112
sg75
(lp119
S'application'
p120
asbag68
(g89
g70
NtRp121
(dp122
g73
(dp123
g100
g101
ssg82
g112
sg75
(lp124
S':'
asbag68
(g89
g70
NtRp125
(dp126
g73
(dp127
sg82
g112
sg75
(lp128
g68
(g69
g70
NtRp129
(dp130
g73
(dp131
g81
I5
ssg82
g125
sg75
(lp132
S'pesquisa'
p133
asbasbasbag68
(g84
g70
NtRp134
(dp135
g73
(dp136
sg82
g78
sg75
(lp137
g68
(g89
g70
NtRp138
(dp139
g73
(dp140
g93
g94
ssg82
g134
sg75
(lp141
g51
asbag68
(g89
g70
NtRp142
(dp143
g73
(dp144
g100
g101
ssg82
g134
sg75
(lp145
S':'
asbag68
(g89
g70
NtRp146
(dp147
g73
(dp148
sg82
g134
sg75
(lp149
g68
(g69
g70
NtRp150
(dp151
g73
(dp152
g81
I5
ssg82
g146
sg75
(lp153
g68
(g77
g70
NtRp154
(dp155
g73
(dp156
g81
I4
ssg82
Nsg75
(lp157
sbasbasbasbag68
(g84
g70
NtRp158
(dp159
g73
(dp160
sg82
g78
sg75
(lp161
g68
(g89
g70
NtRp162
(dp163
g73
(dp164
g93
g94
ssg82
g158
sg75
(lp165
S'body'
p166
asbag68
(g89
g70
NtRp167
(dp168
g73
(dp169
g100
g101
ssg82
g158
sg75
(lp170
S':'
asbag68
(g89
g70
NtRp171
(dp172
g73
(dp173
sg82
g158
sg75
(lp174
g68
(g69
g70
NtRp175
(dp176
g73
(dp177
g81
I5
ssg82
g171
sg75
(lp178
S'<cStringIO.StringO object at 0x98c7a00>'
p179
asbasbasbag68
(g84
g70
NtRp180
(dp181
g73
(dp182
sg82
g78
sg75
(lp183
g68
(g89
g70
NtRp184
(dp185
g73
(dp186
g93
g94
ssg82
g180
sg75
(lp187
S'client'
p188
asbag68
(g89
g70
NtRp189
(dp190
g73
(dp191
g100
g101
ssg82
g180
sg75
(lp192
S':'
asbag68
(g89
g70
NtRp193
(dp194
g73
(dp195
sg82
g180
sg75
(lp196
g68
(g69
g70
NtRp197
(dp198
g73
(dp199
g81
I5
ssg82
g193
sg75
(lp200
S'127.0.0.1'
p201
asbasbasbag68
(g84
g70
NtRp202
(dp203
g73
(dp204
sg82
g78
sg75
(lp205
g68
(g89
g70
NtRp206
(dp207
g73
(dp208
g93
g94
ssg82
g202
sg75
(lp209
S'controller'
p210
asbag68
(g89
g70
NtRp211
(dp212
g73
(dp213
g100
g101
ssg82
g202
sg75
(lp214
S':'
asbag68
(g89
g70
NtRp215
(dp216
g73
(dp217
sg82
g202
sg75
(lp218
g68
(g69
g70
NtRp219
(dp220
g73
(dp221
g81
I5
ssg82
g215
sg75
(lp222
S'default'
p223
asbasbasbag68
(g84
g70
NtRp224
(dp225
g73
(dp226
sg82
g78
sg75
(lp227
g68
(g89
g70
NtRp228
(dp229
g73
(dp230
g93
g94
ssg82
g224
sg75
(lp231
S'cookies'
p232
asbag68
(g89
g70
NtRp233
(dp234
g73
(dp235
g100
g101
ssg82
g224
sg75
(lp236
S':'
asbag68
(g89
g70
NtRp237
(dp238
g73
(dp239
sg82
g224
sg75
(lp240
g68
(g69
g70
NtRp241
(dp242
g73
(dp243
g81
I5
ssg82
g237
sg75
(lp244
g68
(g77
g70
NtRp245
(dp246
g73
(dp247
g81
I4
ssg82
Nsg75
(lp248
g68
(g84
g70
NtRp249
(dp250
g73
(dp251
sg82
g245
sg75
(lp252
g68
(g89
g70
NtRp253
(dp254
g73
(dp255
g93
g94
ssg82
g249
sg75
(lp256
S'session_id_admin'
p257
asbag68
(g89
g70
NtRp258
(dp259
g73
(dp260
g100
g101
ssg82
g249
sg75
(lp261
S':'
asbag68
(g89
g70
NtRp262
(dp263
g73
(dp264
sg82
g249
sg75
(lp265
g68
(g69
g70
NtRp266
(dp267
g73
(dp268
g81
I4
ssg82
g262
sg75
(lp269
g68
(g77
g70
NtRp270
(dp271
g73
(dp272
g81
I3
ssg82
Nsg75
(lp273
g68
(g84
g70
NtRp274
(dp275
g73
(dp276
sg82
g270
sg75
(lp277
g68
(g89
g70
NtRp278
(dp279
g73
(dp280
g93
g94
ssg82
g274
sg75
(lp281
S'comment'
p282
asbag68
(g89
g70
NtRp283
(dp284
g73
(dp285
g100
g101
ssg82
g274
sg75
(lp286
S':'
asbag68
(g89
g70
NtRp287
(dp288
g73
(dp289
sg82
g274
sg75
(lp290
g68
(g69
g70
NtRp291
(dp292
g73
(dp293
g81
I3
ssg82
g287
sg75
(lp294
S''
asbasbasbag68
(g84
g70
NtRp295
(dp296
g73
(dp297
sg82
g270
sg75
(lp298
g68
(g89
g70
NtRp299
(dp300
g73
(dp301
g93
g94
ssg82
g295
sg75
(lp302
S'domain'
p303
asbag68
(g89
g70
NtRp304
(dp305
g73
(dp306
g100
g101
ssg82
g295
sg75
(lp307
S':'
asbag68
(g89
g70
NtRp308
(dp309
g73
(dp310
sg82
g295
sg75
(lp311
g68
(g69
g70
NtRp312
(dp313
g73
(dp314
g81
I3
ssg82
g308
sg75
(lp315
S''
asbasbasbag68
(g84
g70
NtRp316
(dp317
g73
(dp318
sg82
g270
sg75
(lp319
g68
(g89
g70
NtRp320
(dp321
g73
(dp322
g93
g94
ssg82
g316
sg75
(lp323
S'expires'
p324
asbag68
(g89
g70
NtRp325
(dp326
g73
(dp327
g100
g101
ssg82
g316
sg75
(lp328
S':'
asbag68
(g89
g70
NtRp329
(dp330
g73
(dp331
sg82
g316
sg75
(lp332
g68
(g69
g70
NtRp333
(dp334
g73
(dp335
g81
I3
ssg82
g329
sg75
(lp336
S''
asbasbasbag68
(g84
g70
NtRp337
(dp338
g73
(dp339
sg82
g270
sg75
(lp340
g68
(g89
g70
NtRp341
(dp342
g73
(dp343
g93
g94
ssg82
g337
sg75
(lp344
S'httponly'
p345
asbag68
(g89
g70
NtRp346
(dp347
g73
(dp348
g100
g101
ssg82
g337
sg75
(lp349
S':'
asbag68
(g89
g70
NtRp350
(dp351
g73
(dp352
sg82
g337
sg75
(lp353
g68
(g69
g70
NtRp354
(dp355
g73
(dp356
g81
I3
ssg82
g350
sg75
(lp357
S''
asbasbasbag68
(g84
g70
NtRp358
(dp359
g73
(dp360
sg82
g270
sg75
(lp361
g68
(g89
g70
NtRp362
(dp363
g73
(dp364
g93
g94
ssg82
g358
sg75
(lp365
S'max-age'
p366
asbag68
(g89
g70
NtRp367
(dp368
g73
(dp369
g100
g101
ssg82
g358
sg75
(lp370
S':'
asbag68
(g89
g70
NtRp371
(dp372
g73
(dp373
sg82
g358
sg75
(lp374
g68
(g69
g70
NtRp375
(dp376
g73
(dp377
g81
I3
ssg82
g371
sg75
(lp378
S''
asbasbasbag68
(g84
g70
NtRp379
(dp380
g73
(dp381
sg82
g270
sg75
(lp382
g68
(g89
g70
NtRp383
(dp384
g73
(dp385
g93
g94
ssg82
g379
sg75
(lp386
S'path'
p387
asbag68
(g89
g70
NtRp388
(dp389
g73
(dp390
g100
g101
ssg82
g379
sg75
(lp391
S':'
asbag68
(g89
g70
NtRp392
(dp393
g73
(dp394
sg82
g379
sg75
(lp395
g68
(g69
g70
NtRp396
(dp397
g73
(dp398
g81
I3
ssg82
g392
sg75
(lp399
S''
asbasbasbag68
(g84
g70
NtRp400
(dp401
g73
(dp402
sg82
g270
sg75
(lp403
g68
(g89
g70
NtRp404
(dp405
g73
(dp406
g93
g94
ssg82
g400
sg75
(lp407
S'secure'
p408
asbag68
(g89
g70
NtRp409
(dp410
g73
(dp411
g100
g101
ssg82
g400
sg75
(lp412
S':'
asbag68
(g89
g70
NtRp413
(dp414
g73
(dp415
sg82
g400
sg75
(lp416
g68
(g69
g70
NtRp417
(dp418
g73
(dp419
g81
I3
ssg82
g413
sg75
(lp420
S''
asbasbasbag68
(g84
g70
NtRp421
(dp422
g73
(dp423
sg82
g270
sg75
(lp424
g68
(g89
g70
NtRp425
(dp426
g73
(dp427
g93
g94
ssg82
g421
sg75
(lp428
S'version'
p429
asbag68
(g89
g70
NtRp430
(dp431
g73
(dp432
g100
g101
ssg82
g421
sg75
(lp433
S':'
asbag68
(g89
g70
NtRp434
(dp435
g73
(dp436
sg82
g421
sg75
(lp437
g68
(g69
g70
NtRp438
(dp439
g73
(dp440
g81
I3
ssg82
g434
sg75
(lp441
S''
asbasbasbasbasbasbasbag68
(g84
g70
NtRp442
(dp443
g73
(dp444
sg82
g245
sg75
(lp445
g68
(g89
g70
NtRp446
(dp447
g73
(dp448
g93
g94
ssg82
g442
sg75
(lp449
S'session_id_init'
p450
asbag68
(g89
g70
NtRp451
(dp452
g73
(dp453
g100
g101
ssg82
g442
sg75
(lp454
S':'
asbag68
(g89
g70
NtRp455
(dp456
g73
(dp457
sg82
g442
sg75
(lp458
g68
(g69
g70
NtRp459
(dp460
g73
(dp461
g81
I4
ssg82
g455
sg75
(lp462
g68
(g77
g70
NtRp463
(dp464
g73
(dp465
g81
I3
ssg82
Nsg75
(lp466
g68
(g84
g70
NtRp467
(dp468
g73
(dp469
sg82
g463
sg75
(lp470
g68
(g89
g70
NtRp471
(dp472
g73
(dp473
g93
g94
ssg82
g467
sg75
(lp474
g282
asbag68
(g89
g70
NtRp475
(dp476
g73
(dp477
g100
g101
ssg82
g467
sg75
(lp478
S':'
asbag68
(g89
g70
NtRp479
(dp480
g73
(dp481
sg82
g467
sg75
(lp482
g68
(g69
g70
NtRp483
(dp484
g73
(dp485
g81
I3
ssg82
g479
sg75
(lp486
S''
asbasbasbag68
(g84
g70
NtRp487
(dp488
g73
(dp489
sg82
g463
sg75
(lp490
g68
(g89
g70
NtRp491
(dp492
g73
(dp493
g93
g94
ssg82
g487
sg75
(lp494
g303
asbag68
(g89
g70
NtRp495
(dp496
g73
(dp497
g100
g101
ssg82
g487
sg75
(lp498
S':'
asbag68
(g89
g70
NtRp499
(dp500
g73
(dp501
sg82
g487
sg75
(lp502
g68
(g69
g70
NtRp503
(dp504
g73
(dp505
g81
I3
ssg82
g499
sg75
(lp506
S''
asbasbasbag68
(g84
g70
NtRp507
(dp508
g73
(dp509
sg82
g463
sg75
(lp510
g68
(g89
g70
NtRp511
(dp512
g73
(dp513
g93
g94
ssg82
g507
sg75
(lp514
g324
asbag68
(g89
g70
NtRp515
(dp516
g73
(dp517
g100
g101
ssg82
g507
sg75
(lp518
S':'
asbag68
(g89
g70
NtRp519
(dp520
g73
(dp521
sg82
g507
sg75
(lp522
g68
(g69
g70
NtRp523
(dp524
g73
(dp525
g81
I3
ssg82
g519
sg75
(lp526
S''
asbasbasbag68
(g84
g70
NtRp527
(dp528
g73
(dp529
sg82
g463
sg75
(lp530
g68
(g89
g70
NtRp531
(dp532
g73
(dp533
g93
g94
ssg82
g527
sg75
(lp534
g345
asbag68
(g89
g70
NtRp535
(dp536
g73
(dp537
g100
g101
ssg82
g527
sg75
(lp538
S':'
asbag68
(g89
g70
NtRp539
(dp540
g73
(dp541
sg82
g527
sg75
(lp542
g68
(g69
g70
NtRp543
(dp544
g73
(dp545
g81
I3
ssg82
g539
sg75
(lp546
S''
asbasbasbag68
(g84
g70
NtRp547
(dp548
g73
(dp549
sg82
g463
sg75
(lp550
g68
(g89
g70
NtRp551
(dp552
g73
(dp553
g93
g94
ssg82
g547
sg75
(lp554
g366
asbag68
(g89
g70
NtRp555
(dp556
g73
(dp557
g100
g101
ssg82
g547
sg75
(lp558
S':'
asbag68
(g89
g70
NtRp559
(dp560
g73
(dp561
sg82
g547
sg75
(lp562
g68
(g69
g70
NtRp563
(dp564
g73
(dp565
g81
I3
ssg82
g559
sg75
(lp566
S''
asbasbasbag68
(g84
g70
NtRp567
(dp568
g73
(dp569
sg82
g463
sg75
(lp570
g68
(g89
g70
NtRp571
(dp572
g73
(dp573
g93
g94
ssg82
g567
sg75
(lp574
g387
asbag68
(g89
g70
NtRp575
(dp576
g73
(dp577
g100
g101
ssg82
g567
sg75
(lp578
S':'
asbag68
(g89
g70
NtRp579
(dp580
g73
(dp581
sg82
g567
sg75
(lp582
g68
(g69
g70
NtRp583
(dp584
g73
(dp585
g81
I3
ssg82
g579
sg75
(lp586
S''
asbasbasbag68
(g84
g70
NtRp587
(dp588
g73
(dp589
sg82
g463
sg75
(lp590
g68
(g89
g70
NtRp591
(dp592
g73
(dp593
g93
g94
ssg82
g587
sg75
(lp594
g408
asbag68
(g89
g70
NtRp595
(dp596
g73
(dp597
g100
g101
ssg82
g587
sg75
(lp598
S':'
asbag68
(g89
g70
NtRp599
(dp600
g73
(dp601
sg82
g587
sg75
(lp602
g68
(g69
g70
NtRp603
(dp604
g73
(dp605
g81
I3
ssg82
g599
sg75
(lp606
S''
asbasbasbag68
(g84
g70
NtRp607
(dp608
g73
(dp609
sg82
g463
sg75
(lp610
g68
(g89
g70
NtRp611
(dp612
g73
(dp613
g93
g94
ssg82
g607
sg75
(lp614
g429
asbag68
(g89
g70
NtRp615
(dp616
g73
(dp617
g100
g101
ssg82
g607
sg75
(lp618
S':'
asbag68
(g89
g70
NtRp619
(dp620
g73
(dp621
sg82
g607
sg75
(lp622
g68
(g69
g70
NtRp623
(dp624
g73
(dp625
g81
I3
ssg82
g619
sg75
(lp626
S''
asbasbasbasbasbasbasbag68
(g84
g70
NtRp627
(dp628
g73
(dp629
sg82
g245
sg75
(lp630
g68
(g89
g70
NtRp631
(dp632
g73
(dp633
g93
g94
ssg82
g627
sg75
(lp634
S'session_id_pesquisa'
p635
asbag68
(g89
g70
NtRp636
(dp637
g73
(dp638
g100
g101
ssg82
g627
sg75
(lp639
S':'
asbag68
(g89
g70
NtRp640
(dp641
g73
(dp642
sg82
g627
sg75
(lp643
g68
(g69
g70
NtRp644
(dp645
g73
(dp646
g81
I4
ssg82
g640
sg75
(lp647
g68
(g77
g70
NtRp648
(dp649
g73
(dp650
g81
I3
ssg82
Nsg75
(lp651
g68
(g84
g70
NtRp652
(dp653
g73
(dp654
sg82
g648
sg75
(lp655
g68
(g89
g70
NtRp656
(dp657
g73
(dp658
g93
g94
ssg82
g652
sg75
(lp659
g282
asbag68
(g89
g70
NtRp660
(dp661
g73
(dp662
g100
g101
ssg82
g652
sg75
(lp663
S':'
asbag68
(g89
g70
NtRp664
(dp665
g73
(dp666
sg82
g652
sg75
(lp667
g68
(g69
g70
NtRp668
(dp669
g73
(dp670
g81
I3
ssg82
g664
sg75
(lp671
S''
asbasbasbag68
(g84
g70
NtRp672
(dp673
g73
(dp674
sg82
g648
sg75
(lp675
g68
(g89
g70
NtRp676
(dp677
g73
(dp678
g93
g94
ssg82
g672
sg75
(lp679
g303
asbag68
(g89
g70
NtRp680
(dp681
g73
(dp682
g100
g101
ssg82
g672
sg75
(lp683
S':'
asbag68
(g89
g70
NtRp684
(dp685
g73
(dp686
sg82
g672
sg75
(lp687
g68
(g69
g70
NtRp688
(dp689
g73
(dp690
g81
I3
ssg82
g684
sg75
(lp691
S''
asbasbasbag68
(g84
g70
NtRp692
(dp693
g73
(dp694
sg82
g648
sg75
(lp695
g68
(g89
g70
NtRp696
(dp697
g73
(dp698
g93
g94
ssg82
g692
sg75
(lp699
g324
asbag68
(g89
g70
NtRp700
(dp701
g73
(dp702
g100
g101
ssg82
g692
sg75
(lp703
S':'
asbag68
(g89
g70
NtRp704
(dp705
g73
(dp706
sg82
g692
sg75
(lp707
g68
(g69
g70
NtRp708
(dp709
g73
(dp710
g81
I3
ssg82
g704
sg75
(lp711
S''
asbasbasbag68
(g84
g70
NtRp712
(dp713
g73
(dp714
sg82
g648
sg75
(lp715
g68
(g89
g70
NtRp716
(dp717
g73
(dp718
g93
g94
ssg82
g712
sg75
(lp719
g345
asbag68
(g89
g70
NtRp720
(dp721
g73
(dp722
g100
g101
ssg82
g712
sg75
(lp723
S':'
asbag68
(g89
g70
NtRp724
(dp725
g73
(dp726
sg82
g712
sg75
(lp727
g68
(g69
g70
NtRp728
(dp729
g73
(dp730
g81
I3
ssg82
g724
sg75
(lp731
S''
asbasbasbag68
(g84
g70
NtRp732
(dp733
g73
(dp734
sg82
g648
sg75
(lp735
g68
(g89
g70
NtRp736
(dp737
g73
(dp738
g93
g94
ssg82
g732
sg75
(lp739
g366
asbag68
(g89
g70
NtRp740
(dp741
g73
(dp742
g100
g101
ssg82
g732
sg75
(lp743
S':'
asbag68
(g89
g70
NtRp744
(dp745
g73
(dp746
sg82
g732
sg75
(lp747
g68
(g69
g70
NtRp748
(dp749
g73
(dp750
g81
I3
ssg82
g744
sg75
(lp751
S''
asbasbasbag68
(g84
g70
NtRp752
(dp753
g73
(dp754
sg82
g648
sg75
(lp755
g68
(g89
g70
NtRp756
(dp757
g73
(dp758
g93
g94
ssg82
g752
sg75
(lp759
g387
asbag68
(g89
g70
NtRp760
(dp761
g73
(dp762
g100
g101
ssg82
g752
sg75
(lp763
S':'
asbag68
(g89
g70
NtRp764
(dp765
g73
(dp766
sg82
g752
sg75
(lp767
g68
(g69
g70
NtRp768
(dp769
g73
(dp770
g81
I3
ssg82
g764
sg75
(lp771
S''
asbasbasbag68
(g84
g70
NtRp772
(dp773
g73
(dp774
sg82
g648
sg75
(lp775
g68
(g89
g70
NtRp776
(dp777
g73
(dp778
g93
g94
ssg82
g772
sg75
(lp779
g408
asbag68
(g89
g70
NtRp780
(dp781
g73
(dp782
g100
g101
ssg82
g772
sg75
(lp783
S':'
asbag68
(g89
g70
NtRp784
(dp785
g73
(dp786
sg82
g772
sg75
(lp787
g68
(g69
g70
NtRp788
(dp789
g73
(dp790
g81
I3
ssg82
g784
sg75
(lp791
S''
asbasbasbag68
(g84
g70
NtRp792
(dp793
g73
(dp794
sg82
g648
sg75
(lp795
g68
(g89
g70
NtRp796
(dp797
g73
(dp798
g93
g94
ssg82
g792
sg75
(lp799
g429
asbag68
(g89
g70
NtRp800
(dp801
g73
(dp802
g100
g101
ssg82
g792
sg75
(lp803
S':'
asbag68
(g89
g70
NtRp804
(dp805
g73
(dp806
sg82
g792
sg75
(lp807
g68
(g69
g70
NtRp808
(dp809
g73
(dp810
g81
I3
ssg82
g804
sg75
(lp811
S''
asbasbasbasbasbasbasbasbasbasbasbag68
(g84
g70
NtRp812
(dp813
g73
(dp814
sg82
g78
sg75
(lp815
g68
(g89
g70
NtRp816
(dp817
g73
(dp818
g93
g94
ssg82
g812
sg75
(lp819
S'env'
p820
asbag68
(g89
g70
NtRp821
(dp822
g73
(dp823
g100
g101
ssg82
g812
sg75
(lp824
S':'
asbag68
(g89
g70
NtRp825
(dp826
g73
(dp827
sg82
g812
sg75
(lp828
g68
(g69
g70
NtRp829
(dp830
g73
(dp831
g81
I5
ssg82
g825
sg75
(lp832
g68
(g77
g70
NtRp833
(dp834
g73
(dp835
g81
I4
ssg82
Nsg75
(lp836
g68
(g84
g70
NtRp837
(dp838
g73
(dp839
sg82
g833
sg75
(lp840
g68
(g89
g70
NtRp841
(dp842
g73
(dp843
g93
g94
ssg82
g837
sg75
(lp844
S'app_folders'
p845
asbag68
(g89
g70
NtRp846
(dp847
g73
(dp848
g100
g101
ssg82
g837
sg75
(lp849
S':'
asbag68
(g89
g70
NtRp850
(dp851
g73
(dp852
sg82
g837
sg75
(lp853
g68
(g69
g70
NtRp854
(dp855
g73
(dp856
g81
I4
ssg82
g850
sg75
(lp857
S"set(['/home/diego/web2py/applications/pesquisa/', '/home/diego/web2py/applications/admin/', '/home/diego/web2py/applications/init/'])"
p858
asbasbasbag68
(g84
g70
NtRp859
(dp860
g73
(dp861
sg82
g833
sg75
(lp862
g68
(g89
g70
NtRp863
(dp864
g73
(dp865
g93
g94
ssg82
g859
sg75
(lp866
S'applications_parent'
p867
asbag68
(g89
g70
NtRp868
(dp869
g73
(dp870
g100
g101
ssg82
g859
sg75
(lp871
S':'
asbag68
(g89
g70
NtRp872
(dp873
g73
(dp874
sg82
g859
sg75
(lp875
g68
(g69
g70
NtRp876
(dp877
g73
(dp878
g81
I4
ssg82
g872
sg75
(lp879
S'/home/diego/web2py'
p880
asbasbasbag68
(g84
g70
NtRp881
(dp882
g73
(dp883
sg82
g833
sg75
(lp884
g68
(g89
g70
NtRp885
(dp886
g73
(dp887
g93
g94
ssg82
g881
sg75
(lp888
S'cmd_args'
p889
asbag68
(g89
g70
NtRp890
(dp891
g73
(dp892
g100
g101
ssg82
g881
sg75
(lp893
S':'
asbag68
(g89
g70
NtRp894
(dp895
g73
(dp896
sg82
g881
sg75
(lp897
g68
(g69
g70
NtRp898
(dp899
g73
(dp900
g81
I4
ssg82
g894
sg75
(lp901
g68
(g77
g70
NtRp902
(dp903
g73
(dp904
g81
I3
ssg82
Nsg75
(lp905
sbasbasbasbag68
(g84
g70
NtRp906
(dp907
g73
(dp908
sg82
g833
sg75
(lp909
g68
(g89
g70
NtRp910
(dp911
g73
(dp912
g93
g94
ssg82
g906
sg75
(lp913
S'cmd_options'
p914
asbag68
(g89
g70
NtRp915
(dp916
g73
(dp917
g100
g101
ssg82
g906
sg75
(lp918
S':'
asbag68
(g89
g70
NtRp919
(dp920
g73
(dp921
sg82
g906
sg75
(lp922
g68
(g69
g70
NtRp923
(dp924
g73
(dp925
g81
I4
ssg82
g919
sg75
(lp926
S"<Values at 0x94c8dec: {'verbose': False, 'ip': '127.0.0.1', 'shutdown_timeout': 5, 'taskbar': False, 'nocron': False, 'pid_filename': 'httpserver.pid', 'maxthreads': None, 'softcron': False, 'server_name': 'diego-instant', 'bpython': False, 'nogui': False, 'port': 8000, 'extcron': False, 'debuglevel': 30, 'test': None, 'folder': '/home/diego/web2py', 'config': '', 'import_models': False, 'winservice': '', 'shell': None, 'run': '', 'log_filename': 'httpserver.log', 'args': [''], 'socket_timeout': 1, 'ssl_ca_certificate': None, 'scheduler': None, 'profiler_filename': None, 'ssl_private_key': '', 'password': '<ask>', 'request_queue_size': 5, 'ssl_certificate': '', 'cronjob': False, 'numthreads': None, 'quiet': False, 'interfaces': None, 'minthreads': None, 'timeout': 10, 'plain': False, 'nobanner': False}>"
p927
asbasbasbag68
(g84
g70
NtRp928
(dp929
g73
(dp930
sg82
g833
sg75
(lp931
g68
(g89
g70
NtRp932
(dp933
g73
(dp934
g93
g94
ssg82
g928
sg75
(lp935
S'db_sessions'
p936
asbag68
(g89
g70
NtRp937
(dp938
g73
(dp939
g100
g101
ssg82
g928
sg75
(lp940
S':'
asbag68
(g89
g70
NtRp941
(dp942
g73
(dp943
sg82
g928
sg75
(lp944
g68
(g69
g70
NtRp945
(dp946
g73
(dp947
g81
I4
ssg82
g941
sg75
(lp948
S'set([])'
p949
asbasbasbag68
(g84
g70
NtRp950
(dp951
g73
(dp952
sg82
g833
sg75
(lp953
g68
(g89
g70
NtRp954
(dp955
g73
(dp956
g93
g94
ssg82
g950
sg75
(lp957
S'debugging'
p958
asbag68
(g89
g70
NtRp959
(dp960
g73
(dp961
g100
g101
ssg82
g950
sg75
(lp962
S':'
asbag68
(g89
g70
NtRp963
(dp964
g73
(dp965
sg82
g950
sg75
(lp966
g68
(g69
g70
NtRp967
(dp968
g73
(dp969
g81
I4
ssg82
g963
sg75
(lp970
g111
asbasbasbag68
(g84
g70
NtRp971
(dp972
g73
(dp973
sg82
g833
sg75
(lp974
g68
(g89
g70
NtRp975
(dp976
g73
(dp977
g93
g94
ssg82
g971
sg75
(lp978
S'gluon_parent'
p979
asbag68
(g89
g70
NtRp980
(dp981
g73
(dp982
g100
g101
ssg82
g971
sg75
(lp983
S':'
asbag68
(g89
g70
NtRp984
(dp985
g73
(dp986
sg82
g971
sg75
(lp987
g68
(g69
g70
NtRp988
(dp989
g73
(dp990
g81
I4
ssg82
g984
sg75
(lp991
S'/home/diego/web2py'
p992
asbasbasbag68
(g84
g70
NtRp993
(dp994
g73
(dp995
sg82
g833
sg75
(lp996
g68
(g89
g70
NtRp997
(dp998
g73
(dp999
g93
g94
ssg82
g993
sg75
(lp1000
S'http_accept'
p1001
asbag68
(g89
g70
NtRp1002
(dp1003
g73
(dp1004
g100
g101
ssg82
g993
sg75
(lp1005
S':'
asbag68
(g89
g70
NtRp1006
(dp1007
g73
(dp1008
sg82
g993
sg75
(lp1009
g68
(g69
g70
NtRp1010
(dp1011
g73
(dp1012
g81
I4
ssg82
g1006
sg75
(lp1013
S'text/html,application/xhtml+xml,application/xml;q=0.9,*/*;q=0.8'
p1014
asbasbasbag68
(g84
g70
NtRp1015
(dp1016
g73
(dp1017
sg82
g833
sg75
(lp1018
g68
(g89
g70
NtRp1019
(dp1020
g73
(dp1021
g93
g94
ssg82
g1015
sg75
(lp1022
S'http_accept_charset'
p1023
asbag68
(g89
g70
NtRp1024
(dp1025
g73
(dp1026
g100
g101
ssg82
g1015
sg75
(lp1027
S':'
asbag68
(g89
g70
NtRp1028
(dp1029
g73
(dp1030
sg82
g1015
sg75
(lp1031
g68
(g69
g70
NtRp1032
(dp1033
g73
(dp1034
g81
I4
ssg82
g1028
sg75
(lp1035
S'ISO-8859-1,utf-8;q=0.7,*;q=0.3'
p1036
asbasbasbag68
(g84
g70
NtRp1037
(dp1038
g73
(dp1039
sg82
g833
sg75
(lp1040
g68
(g89
g70
NtRp1041
(dp1042
g73
(dp1043
g93
g94
ssg82
g1037
sg75
(lp1044
S'http_accept_encoding'
p1045
asbag68
(g89
g70
NtRp1046
(dp1047
g73
(dp1048
g100
g101
ssg82
g1037
sg75
(lp1049
S':'
asbag68
(g89
g70
NtRp1050
(dp1051
g73
(dp1052
sg82
g1037
sg75
(lp1053
g68
(g69
g70
NtRp1054
(dp1055
g73
(dp1056
g81
I4
ssg82
g1050
sg75
(lp1057
S'gzip,deflate,sdch'
p1058
asbasbasbag68
(g84
g70
NtRp1059
(dp1060
g73
(dp1061
sg82
g833
sg75
(lp1062
g68
(g89
g70
NtRp1063
(dp1064
g73
(dp1065
g93
g94
ssg82
g1059
sg75
(lp1066
S'http_accept_language'
p1067
asbag68
(g89
g70
NtRp1068
(dp1069
g73
(dp1070
g100
g101
ssg82
g1059
sg75
(lp1071
S':'
asbag68
(g89
g70
NtRp1072
(dp1073
g73
(dp1074
sg82
g1059
sg75
(lp1075
g68
(g69
g70
NtRp1076
(dp1077
g73
(dp1078
g81
I4
ssg82
g1072
sg75
(lp1079
S'pt-BR,pt;q=0.8,en-US;q=0.6,en;q=0.4'
p1080
asbasbasbag68
(g84
g70
NtRp1081
(dp1082
g73
(dp1083
sg82
g833
sg75
(lp1084
g68
(g89
g70
NtRp1085
(dp1086
g73
(dp1087
g93
g94
ssg82
g1081
sg75
(lp1088
S'http_cache_control'
p1089
asbag68
(g89
g70
NtRp1090
(dp1091
g73
(dp1092
g100
g101
ssg82
g1081
sg75
(lp1093
S':'
asbag68
(g89
g70
NtRp1094
(dp1095
g73
(dp1096
sg82
g1081
sg75
(lp1097
g68
(g69
g70
NtRp1098
(dp1099
g73
(dp1100
g81
I4
ssg82
g1094
sg75
(lp1101
S'max-age=0'
p1102
asbasbasbag68
(g84
g70
NtRp1103
(dp1104
g73
(dp1105
sg82
g833
sg75
(lp1106
g68
(g89
g70
NtRp1107
(dp1108
g73
(dp1109
g93
g94
ssg82
g1103
sg75
(lp1110
S'http_connection'
p1111
asbag68
(g89
g70
NtRp1112
(dp1113
g73
(dp1114
g100
g101
ssg82
g1103
sg75
(lp1115
S':'
asbag68
(g89
g70
NtRp1116
(dp1117
g73
(dp1118
sg82
g1103
sg75
(lp1119
g68
(g69
g70
NtRp1120
(dp1121
g73
(dp1122
g81
I4
ssg82
g1116
sg75
(lp1123
S'keep-alive'
p1124
asbasbasbag68
(g84
g70
NtRp1125
(dp1126
g73
(dp1127
sg82
g833
sg75
(lp1128
g68
(g89
g70
NtRp1129
(dp1130
g73
(dp1131
g93
g94
ssg82
g1125
sg75
(lp1132
S'http_cookie'
p1133
asbag68
(g89
g70
NtRp1134
(dp1135
g73
(dp1136
g100
g101
ssg82
g1125
sg75
(lp1137
S':'
asbag68
(g89
g70
NtRp1138
(dp1139
g73
(dp1140
sg82
g1125
sg75
(lp1141
g68
(g69
g70
NtRp1142
(dp1143
g73
(dp1144
g81
I4
ssg82
g1138
sg75
(lp1145
S'session_id_init=127.0.0.1-af7453e1-2132-4f6f-84bc-0f714fd38afc; session_id_admin=127.0.0.1-a33aaeae-7a2f-4b55-9dcc-78c73bd39a81; session_id_pesquisa=127.0.0.1-b7f9526b-9236-4917-b349-50966985a934'
p1146
asbasbasbag68
(g84
g70
NtRp1147
(dp1148
g73
(dp1149
sg82
g833
sg75
(lp1150
g68
(g89
g70
NtRp1151
(dp1152
g73
(dp1153
g93
g94
ssg82
g1147
sg75
(lp1154
S'http_host'
p1155
asbag68
(g89
g70
NtRp1156
(dp1157
g73
(dp1158
g100
g101
ssg82
g1147
sg75
(lp1159
S':'
asbag68
(g89
g70
NtRp1160
(dp1161
g73
(dp1162
sg82
g1147
sg75
(lp1163
g68
(g69
g70
NtRp1164
(dp1165
g73
(dp1166
g81
I4
ssg82
g1160
sg75
(lp1167
S'127.0.0.1:8000'
p1168
asbasbasbag68
(g84
g70
NtRp1169
(dp1170
g73
(dp1171
sg82
g833
sg75
(lp1172
g68
(g89
g70
NtRp1173
(dp1174
g73
(dp1175
g93
g94
ssg82
g1169
sg75
(lp1176
S'http_referer'
p1177
asbag68
(g89
g70
NtRp1178
(dp1179
g73
(dp1180
g100
g101
ssg82
g1169
sg75
(lp1181
S':'
asbag68
(g89
g70
NtRp1182
(dp1183
g73
(dp1184
sg82
g1169
sg75
(lp1185
g68
(g69
g70
NtRp1186
(dp1187
g73
(dp1188
g81
I4
ssg82
g1182
sg75
(lp1189
S'http://127.0.0.1:8000/pesquisa/default/data_crud/create/campos/?_next=/pesquisa/default/'
p1190
asbasbasbag68
(g84
g70
NtRp1191
(dp1192
g73
(dp1193
sg82
g833
sg75
(lp1194
g68
(g89
g70
NtRp1195
(dp1196
g73
(dp1197
g93
g94
ssg82
g1191
sg75
(lp1198
S'http_user_agent'
p1199
asbag68
(g89
g70
NtRp1200
(dp1201
g73
(dp1202
g100
g101
ssg82
g1191
sg75
(lp1203
S':'
asbag68
(g89
g70
NtRp1204
(dp1205
g73
(dp1206
sg82
g1191
sg75
(lp1207
g68
(g69
g70
NtRp1208
(dp1209
g73
(dp1210
g81
I4
ssg82
g1204
sg75
(lp1211
S'Mozilla/5.0 (X11; Linux i686) AppleWebKit/535.2 (KHTML, like Gecko) Ubuntu/11.10 Chromium/15.0.874.106 Chrome/15.0.874.106 Safari/535.2'
p1212
asbasbasbag68
(g84
g70
NtRp1213
(dp1214
g73
(dp1215
sg82
g833
sg75
(lp1216
g68
(g89
g70
NtRp1217
(dp1218
g73
(dp1219
g93
g94
ssg82
g1213
sg75
(lp1220
S'is_jython'
p1221
asbag68
(g89
g70
NtRp1222
(dp1223
g73
(dp1224
g100
g101
ssg82
g1213
sg75
(lp1225
S':'
asbag68
(g89
g70
NtRp1226
(dp1227
g73
(dp1228
sg82
g1213
sg75
(lp1229
g68
(g69
g70
NtRp1230
(dp1231
g73
(dp1232
g81
I4
ssg82
g1226
sg75
(lp1233
g111
asbasbasbag68
(g84
g70
NtRp1234
(dp1235
g73
(dp1236
sg82
g833
sg75
(lp1237
g68
(g89
g70
NtRp1238
(dp1239
g73
(dp1240
g93
g94
ssg82
g1234
sg75
(lp1241
S'is_pypy'
p1242
asbag68
(g89
g70
NtRp1243
(dp1244
g73
(dp1245
g100
g101
ssg82
g1234
sg75
(lp1246
S':'
asbag68
(g89
g70
NtRp1247
(dp1248
g73
(dp1249
sg82
g1234
sg75
(lp1250
g68
(g69
g70
NtRp1251
(dp1252
g73
(dp1253
g81
I4
ssg82
g1247
sg75
(lp1254
g111
asbasbasbag68
(g84
g70
NtRp1255
(dp1256
g73
(dp1257
sg82
g833
sg75
(lp1258
g68
(g89
g70
NtRp1259
(dp1260
g73
(dp1261
g93
g94
ssg82
g1255
sg75
(lp1262
S'path_info'
p1263
asbag68
(g89
g70
NtRp1264
(dp1265
g73
(dp1266
g100
g101
ssg82
g1255
sg75
(lp1267
S':'
asbag68
(g89
g70
NtRp1268
(dp1269
g73
(dp1270
sg82
g1255
sg75
(lp1271
g68
(g69
g70
NtRp1272
(dp1273
g73
(dp1274
g81
I4
ssg82
g1268
sg75
(lp1275
S'/pesquisa/default/resultado'
p1276
asbasbasbag68
(g84
g70
NtRp1277
(dp1278
g73
(dp1279
sg82
g833
sg75
(lp1280
g68
(g89
g70
NtRp1281
(dp1282
g73
(dp1283
g93
g94
ssg82
g1277
sg75
(lp1284
S'query_string'
p1285
asbag68
(g89
g70
NtRp1286
(dp1287
g73
(dp1288
g100
g101
ssg82
g1277
sg75
(lp1289
S':'
asbag68
(g89
g70
NtRp1290
(dp1291
g73
(dp1292
sg82
g1277
sg75
(lp1293
g68
(g69
g70
NtRp1294
(dp1295
g73
(dp1296
g81
I4
ssg82
g1290
sg75
(lp1297
S''
asbasbasbag68
(g84
g70
NtRp1298
(dp1299
g73
(dp1300
sg82
g833
sg75
(lp1301
g68
(g89
g70
NtRp1302
(dp1303
g73
(dp1304
g93
g94
ssg82
g1298
sg75
(lp1305
S'remote_addr'
p1306
asbag68
(g89
g70
NtRp1307
(dp1308
g73
(dp1309
g100
g101
ssg82
g1298
sg75
(lp1310
S':'
asbag68
(g89
g70
NtRp1311
(dp1312
g73
(dp1313
sg82
g1298
sg75
(lp1314
g68
(g69
g70
NtRp1315
(dp1316
g73
(dp1317
g81
I4
ssg82
g1311
sg75
(lp1318
g201
asbasbasbag68
(g84
g70
NtRp1319
(dp1320
g73
(dp1321
sg82
g833
sg75
(lp1322
g68
(g89
g70
NtRp1323
(dp1324
g73
(dp1325
g93
g94
ssg82
g1319
sg75
(lp1326
S'remote_port'
p1327
asbag68
(g89
g70
NtRp1328
(dp1329
g73
(dp1330
g100
g101
ssg82
g1319
sg75
(lp1331
S':'
asbag68
(g89
g70
NtRp1332
(dp1333
g73
(dp1334
sg82
g1319
sg75
(lp1335
g68
(g69
g70
NtRp1336
(dp1337
g73
(dp1338
g81
I4
ssg82
g1332
sg75
(lp1339
S'34464'
p1340
asbasbasbag68
(g84
g70
NtRp1341
(dp1342
g73
(dp1343
sg82
g833
sg75
(lp1344
g68
(g89
g70
NtRp1345
(dp1346
g73
(dp1347
g93
g94
ssg82
g1341
sg75
(lp1348
S'request_method'
p1349
asbag68
(g89
g70
NtRp1350
(dp1351
g73
(dp1352
g100
g101
ssg82
g1341
sg75
(lp1353
S':'
asbag68
(g89
g70
NtRp1354
(dp1355
g73
(dp1356
sg82
g1341
sg75
(lp1357
g68
(g69
g70
NtRp1358
(dp1359
g73
(dp1360
g81
I4
ssg82
g1354
sg75
(lp1361
S'GET'
p1362
asbasbasbag68
(g84
g70
NtRp1363
(dp1364
g73
(dp1365
sg82
g833
sg75
(lp1366
g68
(g89
g70
NtRp1367
(dp1368
g73
(dp1369
g93
g94
ssg82
g1363
sg75
(lp1370
S'script_name'
p1371
asbag68
(g89
g70
NtRp1372
(dp1373
g73
(dp1374
g100
g101
ssg82
g1363
sg75
(lp1375
S':'
asbag68
(g89
g70
NtRp1376
(dp1377
g73
(dp1378
sg82
g1363
sg75
(lp1379
g68
(g69
g70
NtRp1380
(dp1381
g73
(dp1382
g81
I4
ssg82
g1376
sg75
(lp1383
S''
asbasbasbag68
(g84
g70
NtRp1384
(dp1385
g73
(dp1386
sg82
g833
sg75
(lp1387
g68
(g89
g70
NtRp1388
(dp1389
g73
(dp1390
g93
g94
ssg82
g1384
sg75
(lp1391
S'server_name'
p1392
asbag68
(g89
g70
NtRp1393
(dp1394
g73
(dp1395
g100
g101
ssg82
g1384
sg75
(lp1396
S':'
asbag68
(g89
g70
NtRp1397
(dp1398
g73
(dp1399
sg82
g1384
sg75
(lp1400
g68
(g69
g70
NtRp1401
(dp1402
g73
(dp1403
g81
I4
ssg82
g1397
sg75
(lp1404
S'diego-instant'
p1405
asbasbasbag68
(g84
g70
NtRp1406
(dp1407
g73
(dp1408
sg82
g833
sg75
(lp1409
g68
(g89
g70
NtRp1410
(dp1411
g73
(dp1412
g93
g94
ssg82
g1406
sg75
(lp1413
S'server_port'
p1414
asbag68
(g89
g70
NtRp1415
(dp1416
g73
(dp1417
g100
g101
ssg82
g1406
sg75
(lp1418
S':'
asbag68
(g89
g70
NtRp1419
(dp1420
g73
(dp1421
sg82
g1406
sg75
(lp1422
g68
(g69
g70
NtRp1423
(dp1424
g73
(dp1425
g81
I4
ssg82
g1419
sg75
(lp1426
S'8000'
p1427
asbasbasbag68
(g84
g70
NtRp1428
(dp1429
g73
(dp1430
sg82
g833
sg75
(lp1431
g68
(g89
g70
NtRp1432
(dp1433
g73
(dp1434
g93
g94
ssg82
g1428
sg75
(lp1435
S'server_protocol'
p1436
asbag68
(g89
g70
NtRp1437
(dp1438
g73
(dp1439
g100
g101
ssg82
g1428
sg75
(lp1440
S':'
asbag68
(g89
g70
NtRp1441
(dp1442
g73
(dp1443
sg82
g1428
sg75
(lp1444
g68
(g69
g70
NtRp1445
(dp1446
g73
(dp1447
g81
I4
ssg82
g1441
sg75
(lp1448
S'HTTP/1.1'
p1449
asbasbasbag68
(g84
g70
NtRp1450
(dp1451
g73
(dp1452
sg82
g833
sg75
(lp1453
g68
(g89
g70
NtRp1454
(dp1455
g73
(dp1456
g93
g94
ssg82
g1450
sg75
(lp1457
S'server_software'
p1458
asbag68
(g89
g70
NtRp1459
(dp1460
g73
(dp1461
g100
g101
ssg82
g1450
sg75
(lp1462
S':'
asbag68
(g89
g70
NtRp1463
(dp1464
g73
(dp1465
sg82
g1450
sg75
(lp1466
g68
(g69
g70
NtRp1467
(dp1468
g73
(dp1469
g81
I4
ssg82
g1463
sg75
(lp1470
S'Rocket 1.2.4'
p1471
asbasbasbag68
(g84
g70
NtRp1472
(dp1473
g73
(dp1474
sg82
g833
sg75
(lp1475
g68
(g89
g70
NtRp1476
(dp1477
g73
(dp1478
g93
g94
ssg82
g1472
sg75
(lp1479
S'web2py_crontype'
p1480
asbag68
(g89
g70
NtRp1481
(dp1482
g73
(dp1483
g100
g101
ssg82
g1472
sg75
(lp1484
S':'
asbag68
(g89
g70
NtRp1485
(dp1486
g73
(dp1487
sg82
g1472
sg75
(lp1488
g68
(g69
g70
NtRp1489
(dp1490
g73
(dp1491
g81
I4
ssg82
g1485
sg75
(lp1492
S'hard'
p1493
asbasbasbag68
(g84
g70
NtRp1494
(dp1495
g73
(dp1496
sg82
g833
sg75
(lp1497
g68
(g89
g70
NtRp1498
(dp1499
g73
(dp1500
g93
g94
ssg82
g1494
sg75
(lp1501
S'web2py_path'
p1502
asbag68
(g89
g70
NtRp1503
(dp1504
g73
(dp1505
g100
g101
ssg82
g1494
sg75
(lp1506
S':'
asbag68
(g89
g70
NtRp1507
(dp1508
g73
(dp1509
sg82
g1494
sg75
(lp1510
g68
(g69
g70
NtRp1511
(dp1512
g73
(dp1513
g81
I4
ssg82
g1507
sg75
(lp1514
g880
asbasbasbag68
(g84
g70
NtRp1515
(dp1516
g73
(dp1517
sg82
g833
sg75
(lp1518
g68
(g89
g70
NtRp1519
(dp1520
g73
(dp1521
g93
g94
ssg82
g1515
sg75
(lp1522
S'web2py_version'
p1523
asbag68
(g89
g70
NtRp1524
(dp1525
g73
(dp1526
g100
g101
ssg82
g1515
sg75
(lp1527
S':'
asbag68
(g89
g70
NtRp1528
(dp1529
g73
(dp1530
sg82
g1515
sg75
(lp1531
g68
(g69
g70
NtRp1532
(dp1533
g73
(dp1534
g81
I4
ssg82
g1528
sg75
(lp1535
g68
(g77
g70
NtRp1536
(dp1537
g73
(dp1538
g81
I3
ssg82
Nsg75
(lp1539
g68
(g84
g70
NtRp1540
(dp1541
g73
(dp1542
sg82
g1536
sg75
(lp1543
g68
(g89
g70
NtRp1544
(dp1545
g73
(dp1546
sg82
g1540
sg75
(lp1547
g68
(g69
g70
NtRp1548
(dp1549
g73
(dp1550
g81
I3
ssg82
g1544
sg75
(lp1551
S'1'
asbasbasbag68
(g84
g70
NtRp1552
(dp1553
g73
(dp1554
sg82
g1536
sg75
(lp1555
g68
(g89
g70
NtRp1556
(dp1557
g73
(dp1558
sg82
g1552
sg75
(lp1559
g68
(g69
g70
NtRp1560
(dp1561
g73
(dp1562
g81
I3
ssg82
g1556
sg75
(lp1563
S'99'
p1564
asbasbasbag68
(g84
g70
NtRp1565
(dp1566
g73
(dp1567
sg82
g1536
sg75
(lp1568
g68
(g89
g70
NtRp1569
(dp1570
g73
(dp1571
sg82
g1565
sg75
(lp1572
g68
(g69
g70
NtRp1573
(dp1574
g73
(dp1575
g81
I3
ssg82
g1569
sg75
(lp1576
S'4'
asbasbasbag68
(g84
g70
NtRp1577
(dp1578
g73
(dp1579
sg82
g1536
sg75
(lp1580
g68
(g89
g70
NtRp1581
(dp1582
g73
(dp1583
sg82
g1577
sg75
(lp1584
g68
(g69
g70
NtRp1585
(dp1586
g73
(dp1587
g81
I3
ssg82
g1581
sg75
(lp1588
S'datetime.datetime(2011, 12, 14, 14, 46, 14)'
p1589
asbasbasbag68
(g84
g70
NtRp1590
(dp1591
g73
(dp1592
sg82
g1536
sg75
(lp1593
g68
(g89
g70
NtRp1594
(dp1595
g73
(dp1596
sg82
g1590
sg75
(lp1597
g68
(g69
g70
NtRp1598
(dp1599
g73
(dp1600
g81
I3
ssg82
g1594
sg75
(lp1601
S'stable'
p1602
asbasbasbasbasbasbasbag68
(g84
g70
NtRp1603
(dp1604
g73
(dp1605
sg82
g833
sg75
(lp1606
g68
(g89
g70
NtRp1607
(dp1608
g73
(dp1609
g93
g94
ssg82
g1603
sg75
(lp1610
S'wsgi_errors'
p1611
asbag68
(g89
g70
NtRp1612
(dp1613
g73
(dp1614
g100
g101
ssg82
g1603
sg75
(lp1615
S':'
asbag68
(g89
g70
NtRp1616
(dp1617
g73
(dp1618
sg82
g1603
sg75
(lp1619
g68
(g69
g70
NtRp1620
(dp1621
g73
(dp1622
g81
I4
ssg82
g1616
sg75
(lp1623
S"<open file '<stderr>', mode 'w' at 0xb748a0d0>"
p1624
asbasbasbag68
(g84
g70
NtRp1625
(dp1626
g73
(dp1627
sg82
g833
sg75
(lp1628
g68
(g89
g70
NtRp1629
(dp1630
g73
(dp1631
g93
g94
ssg82
g1625
sg75
(lp1632
S'wsgi_file_wrapper'
p1633
asbag68
(g89
g70
NtRp1634
(dp1635
g73
(dp1636
g100
g101
ssg82
g1625
sg75
(lp1637
S':'
asbag68
(g89
g70
NtRp1638
(dp1639
g73
(dp1640
sg82
g1625
sg75
(lp1641
g68
(g69
g70
NtRp1642
(dp1643
g73
(dp1644
g81
I4
ssg82
g1638
sg75
(lp1645
S'<class wsgiref.util.FileWrapper at 0x94031ac>'
p1646
asbasbasbag68
(g84
g70
NtRp1647
(dp1648
g73
(dp1649
sg82
g833
sg75
(lp1650
g68
(g89
g70
NtRp1651
(dp1652
g73
(dp1653
g93
g94
ssg82
g1647
sg75
(lp1654
S'wsgi_input'
p1655
asbag68
(g89
g70
NtRp1656
(dp1657
g73
(dp1658
g100
g101
ssg82
g1647
sg75
(lp1659
S':'
asbag68
(g89
g70
NtRp1660
(dp1661
g73
(dp1662
sg82
g1647
sg75
(lp1663
g68
(g69
g70
NtRp1664
(dp1665
g73
(dp1666
g81
I4
ssg82
g1660
sg75
(lp1667
S'<socket._fileobject object at 0x9ae77ac>'
p1668
asbasbasbag68
(g84
g70
NtRp1669
(dp1670
g73
(dp1671
sg82
g833
sg75
(lp1672
g68
(g89
g70
NtRp1673
(dp1674
g73
(dp1675
g93
g94
ssg82
g1669
sg75
(lp1676
S'wsgi_multiprocess'
p1677
asbag68
(g89
g70
NtRp1678
(dp1679
g73
(dp1680
g100
g101
ssg82
g1669
sg75
(lp1681
S':'
asbag68
(g89
g70
NtRp1682
(dp1683
g73
(dp1684
sg82
g1669
sg75
(lp1685
g68
(g69
g70
NtRp1686
(dp1687
g73
(dp1688
g81
I4
ssg82
g1682
sg75
(lp1689
g111
asbasbasbag68
(g84
g70
NtRp1690
(dp1691
g73
(dp1692
sg82
g833
sg75
(lp1693
g68
(g89
g70
NtRp1694
(dp1695
g73
(dp1696
g93
g94
ssg82
g1690
sg75
(lp1697
S'wsgi_multithread'
p1698
asbag68
(g89
g70
NtRp1699
(dp1700
g73
(dp1701
g100
g101
ssg82
g1690
sg75
(lp1702
S':'
asbag68
(g89
g70
NtRp1703
(dp1704
g73
(dp1705
sg82
g1690
sg75
(lp1706
g68
(g69
g70
NtRp1707
(dp1708
g73
(dp1709
g81
I4
ssg82
g1703
sg75
(lp1710
S'True'
p1711
asbasbasbag68
(g84
g70
NtRp1712
(dp1713
g73
(dp1714
sg82
g833
sg75
(lp1715
g68
(g89
g70
NtRp1716
(dp1717
g73
(dp1718
g93
g94
ssg82
g1712
sg75
(lp1719
S'wsgi_run_once'
p1720
asbag68
(g89
g70
NtRp1721
(dp1722
g73
(dp1723
g100
g101
ssg82
g1712
sg75
(lp1724
S':'
asbag68
(g89
g70
NtRp1725
(dp1726
g73
(dp1727
sg82
g1712
sg75
(lp1728
g68
(g69
g70
NtRp1729
(dp1730
g73
(dp1731
g81
I4
ssg82
g1725
sg75
(lp1732
g111
asbasbasbag68
(g84
g70
NtRp1733
(dp1734
g73
(dp1735
sg82
g833
sg75
(lp1736
g68
(g89
g70
NtRp1737
(dp1738
g73
(dp1739
g93
g94
ssg82
g1733
sg75
(lp1740
S'wsgi_url_scheme'
p1741
asbag68
(g89
g70
NtRp1742
(dp1743
g73
(dp1744
g100
g101
ssg82
g1733
sg75
(lp1745
S':'
asbag68
(g89
g70
NtRp1746
(dp1747
g73
(dp1748
sg82
g1733
sg75
(lp1749
g68
(g69
g70
NtRp1750
(dp1751
g73
(dp1752
g81
I4
ssg82
g1746
sg75
(lp1753
S'http'
p1754
asbasbasbag68
(g84
g70
NtRp1755
(dp1756
g73
(dp1757
sg82
g833
sg75
(lp1758
g68
(g89
g70
NtRp1759
(dp1760
g73
(dp1761
g93
g94
ssg82
g1755
sg75
(lp1762
S'wsgi_version'
p1763
asbag68
(g89
g70
NtRp1764
(dp1765
g73
(dp1766
g100
g101
ssg82
g1755
sg75
(lp1767
S':'
asbag68
(g89
g70
NtRp1768
(dp1769
g73
(dp1770
sg82
g1755
sg75
(lp1771
g68
(g69
g70
NtRp1772
(dp1773
g73
(dp1774
g81
I4
ssg82
g1768
sg75
(lp1775
g68
(g77
g70
NtRp1776
(dp1777
g73
(dp1778
g81
I3
ssg82
Nsg75
(lp1779
g68
(g84
g70
NtRp1780
(dp1781
g73
(dp1782
sg82
g1776
sg75
(lp1783
g68
(g89
g70
NtRp1784
(dp1785
g73
(dp1786
sg82
g1780
sg75
(lp1787
g68
(g69
g70
NtRp1788
(dp1789
g73
(dp1790
g81
I3
ssg82
g1784
sg75
(lp1791
S'1'
asbasbasbag68
(g84
g70
NtRp1792
(dp1793
g73
(dp1794
sg82
g1776
sg75
(lp1795
g68
(g89
g70
NtRp1796
(dp1797
g73
(dp1798
sg82
g1792
sg75
(lp1799
g68
(g69
g70
NtRp1800
(dp1801
g73
(dp1802
g81
I3
ssg82
g1796
sg75
(lp1803
S'0'
asbasbasbasbasbasbasbasbasbasbasbag68
(g84
g70
NtRp1804
(dp1805
g73
(dp1806
sg82
g78
sg75
(lp1807
g68
(g89
g70
NtRp1808
(dp1809
g73
(dp1810
g93
g94
ssg82
g1804
sg75
(lp1811
S'extension'
p1812
asbag68
(g89
g70
NtRp1813
(dp1814
g73
(dp1815
g100
g101
ssg82
g1804
sg75
(lp1816
S':'
asbag68
(g89
g70
NtRp1817
(dp1818
g73
(dp1819
sg82
g1804
sg75
(lp1820
g68
(g69
g70
NtRp1821
(dp1822
g73
(dp1823
g81
I5
ssg82
g1817
sg75
(lp1824
S'html'
p1825
asbasbasbag68
(g84
g70
NtRp1826
(dp1827
g73
(dp1828
sg82
g78
sg75
(lp1829
g68
(g89
g70
NtRp1830
(dp1831
g73
(dp1832
g93
g94
ssg82
g1826
sg75
(lp1833
S'folder'
p1834
asbag68
(g89
g70
NtRp1835
(dp1836
g73
(dp1837
g100
g101
ssg82
g1826
sg75
(lp1838
S':'
asbag68
(g89
g70
NtRp1839
(dp1840
g73
(dp1841
sg82
g1826
sg75
(lp1842
g68
(g69
g70
NtRp1843
(dp1844
g73
(dp1845
g81
I5
ssg82
g1839
sg75
(lp1846
S'/home/diego/web2py/applications/pesquisa/'
p1847
asbasbasbag68
(g84
g70
NtRp1848
(dp1849
g73
(dp1850
sg82
g78
sg75
(lp1851
g68
(g89
g70
NtRp1852
(dp1853
g73
(dp1854
g93
g94
ssg82
g1848
sg75
(lp1855
S'function'
p1856
asbag68
(g89
g70
NtRp1857
(dp1858
g73
(dp1859
g100
g101
ssg82
g1848
sg75
(lp1860
S':'
asbag68
(g89
g70
NtRp1861
(dp1862
g73
(dp1863
sg82
g1848
sg75
(lp1864
g68
(g69
g70
NtRp1865
(dp1866
g73
(dp1867
g81
I5
ssg82
g1861
sg75
(lp1868
S'resultado'
p1869
asbasbasbag68
(g84
g70
NtRp1870
(dp1871
g73
(dp1872
sg82
g78
sg75
(lp1873
g68
(g89
g70
NtRp1874
(dp1875
g73
(dp1876
g93
g94
ssg82
g1870
sg75
(lp1877
S'get_vars'
p1878
asbag68
(g89
g70
NtRp1879
(dp1880
g73
(dp1881
g100
g101
ssg82
g1870
sg75
(lp1882
S':'
asbag68
(g89
g70
NtRp1883
(dp1884
g73
(dp1885
sg82
g1870
sg75
(lp1886
g68
(g69
g70
NtRp1887
(dp1888
g73
(dp1889
g81
I5
ssg82
g1883
sg75
(lp1890
g68
(g77
g70
NtRp1891
(dp1892
g73
(dp1893
g81
I4
ssg82
Nsg75
(lp1894
sbasbasbasbag68
(g84
g70
NtRp1895
(dp1896
g73
(dp1897
sg82
g78
sg75
(lp1898
g68
(g89
g70
NtRp1899
(dp1900
g73
(dp1901
g93
g94
ssg82
g1895
sg75
(lp1902
S'global_settings'
p1903
asbag68
(g89
g70
NtRp1904
(dp1905
g73
(dp1906
g100
g101
ssg82
g1895
sg75
(lp1907
S':'
asbag68
(g89
g70
NtRp1908
(dp1909
g73
(dp1910
sg82
g1895
sg75
(lp1911
g68
(g69
g70
NtRp1912
(dp1913
g73
(dp1914
g81
I5
ssg82
g1908
sg75
(lp1915
g68
(g77
g70
NtRp1916
(dp1917
g73
(dp1918
g81
I4
ssg82
Nsg75
(lp1919
g68
(g84
g70
NtRp1920
(dp1921
g73
(dp1922
sg82
g1916
sg75
(lp1923
g68
(g89
g70
NtRp1924
(dp1925
g73
(dp1926
g93
g94
ssg82
g1920
sg75
(lp1927
g845
asbag68
(g89
g70
NtRp1928
(dp1929
g73
(dp1930
g100
g101
ssg82
g1920
sg75
(lp1931
S':'
asbag68
(g89
g70
NtRp1932
(dp1933
g73
(dp1934
sg82
g1920
sg75
(lp1935
g68
(g69
g70
NtRp1936
(dp1937
g73
(dp1938
g81
I4
ssg82
g1932
sg75
(lp1939
S"set(['/home/diego/web2py/applications/pesquisa/', '/home/diego/web2py/applications/admin/', '/home/diego/web2py/applications/init/'])"
p1940
asbasbasbag68
(g84
g70
NtRp1941
(dp1942
g73
(dp1943
sg82
g1916
sg75
(lp1944
g68
(g89
g70
NtRp1945
(dp1946
g73
(dp1947
g93
g94
ssg82
g1941
sg75
(lp1948
g867
asbag68
(g89
g70
NtRp1949
(dp1950
g73
(dp1951
g100
g101
ssg82
g1941
sg75
(lp1952
S':'
asbag68
(g89
g70
NtRp1953
(dp1954
g73
(dp1955
sg82
g1941
sg75
(lp1956
g68
(g69
g70
NtRp1957
(dp1958
g73
(dp1959
g81
I4
ssg82
g1953
sg75
(lp1960
g880
asbasbasbag68
(g84
g70
NtRp1961
(dp1962
g73
(dp1963
sg82
g1916
sg75
(lp1964
g68
(g89
g70
NtRp1965
(dp1966
g73
(dp1967
g93
g94
ssg82
g1961
sg75
(lp1968
g889
asbag68
(g89
g70
NtRp1969
(dp1970
g73
(dp1971
g100
g101
ssg82
g1961
sg75
(lp1972
S':'
asbag68
(g89
g70
NtRp1973
(dp1974
g73
(dp1975
sg82
g1961
sg75
(lp1976
g68
(g69
g70
NtRp1977
(dp1978
g73
(dp1979
g81
I4
ssg82
g1973
sg75
(lp1980
g68
(g77
g70
NtRp1981
(dp1982
g73
(dp1983
g81
I3
ssg82
Nsg75
(lp1984
sbasbasbasbag68
(g84
g70
NtRp1985
(dp1986
g73
(dp1987
sg82
g1916
sg75
(lp1988
g68
(g89
g70
NtRp1989
(dp1990
g73
(dp1991
g93
g94
ssg82
g1985
sg75
(lp1992
g914
asbag68
(g89
g70
NtRp1993
(dp1994
g73
(dp1995
g100
g101
ssg82
g1985
sg75
(lp1996
S':'
asbag68
(g89
g70
NtRp1997
(dp1998
g73
(dp1999
sg82
g1985
sg75
(lp2000
g68
(g69
g70
NtRp2001
(dp2002
g73
(dp2003
g81
I4
ssg82
g1997
sg75
(lp2004
S"<Values at 0x94c8dec: {'verbose': False, 'ip': '127.0.0.1', 'shutdown_timeout': 5, 'taskbar': False, 'nocron': False, 'pid_filename': 'httpserver.pid', 'maxthreads': None, 'softcron': False, 'server_name': 'diego-instant', 'bpython': False, 'nogui': False, 'port': 8000, 'extcron': False, 'debuglevel': 30, 'test': None, 'folder': '/home/diego/web2py', 'config': '', 'import_models': False, 'winservice': '', 'shell': None, 'run': '', 'log_filename': 'httpserver.log', 'args': [''], 'socket_timeout': 1, 'ssl_ca_certificate': None, 'scheduler': None, 'profiler_filename': None, 'ssl_private_key': '', 'password': '<ask>', 'request_queue_size': 5, 'ssl_certificate': '', 'cronjob': False, 'numthreads': None, 'quiet': False, 'interfaces': None, 'minthreads': None, 'timeout': 10, 'plain': False, 'nobanner': False}>"
p2005
asbasbasbag68
(g84
g70
NtRp2006
(dp2007
g73
(dp2008
sg82
g1916
sg75
(lp2009
g68
(g89
g70
NtRp2010
(dp2011
g73
(dp2012
g93
g94
ssg82
g2006
sg75
(lp2013
g936
asbag68
(g89
g70
NtRp2014
(dp2015
g73
(dp2016
g100
g101
ssg82
g2006
sg75
(lp2017
S':'
asbag68
(g89
g70
NtRp2018
(dp2019
g73
(dp2020
sg82
g2006
sg75
(lp2021
g68
(g69
g70
NtRp2022
(dp2023
g73
(dp2024
g81
I4
ssg82
g2018
sg75
(lp2025
S'set([])'
p2026
asbasbasbag68
(g84
g70
NtRp2027
(dp2028
g73
(dp2029
sg82
g1916
sg75
(lp2030
g68
(g89
g70
NtRp2031
(dp2032
g73
(dp2033
g93
g94
ssg82
g2027
sg75
(lp2034
g958
asbag68
(g89
g70
NtRp2035
(dp2036
g73
(dp2037
g100
g101
ssg82
g2027
sg75
(lp2038
S':'
asbag68
(g89
g70
NtRp2039
(dp2040
g73
(dp2041
sg82
g2027
sg75
(lp2042
g68
(g69
g70
NtRp2043
(dp2044
g73
(dp2045
g81
I4
ssg82
g2039
sg75
(lp2046
g111
asbasbasbag68
(g84
g70
NtRp2047
(dp2048
g73
(dp2049
sg82
g1916
sg75
(lp2050
g68
(g89
g70
NtRp2051
(dp2052
g73
(dp2053
g93
g94
ssg82
g2047
sg75
(lp2054
g979
asbag68
(g89
g70
NtRp2055
(dp2056
g73
(dp2057
g100
g101
ssg82
g2047
sg75
(lp2058
S':'
asbag68
(g89
g70
NtRp2059
(dp2060
g73
(dp2061
sg82
g2047
sg75
(lp2062
g68
(g69
g70
NtRp2063
(dp2064
g73
(dp2065
g81
I4
ssg82
g2059
sg75
(lp2066
g992
asbasbasbag68
(g84
g70
NtRp2067
(dp2068
g73
(dp2069
sg82
g1916
sg75
(lp2070
g68
(g89
g70
NtRp2071
(dp2072
g73
(dp2073
g93
g94
ssg82
g2067
sg75
(lp2074
g1221
asbag68
(g89
g70
NtRp2075
(dp2076
g73
(dp2077
g100
g101
ssg82
g2067
sg75
(lp2078
S':'
asbag68
(g89
g70
NtRp2079
(dp2080
g73
(dp2081
sg82
g2067
sg75
(lp2082
g68
(g69
g70
NtRp2083
(dp2084
g73
(dp2085
g81
I4
ssg82
g2079
sg75
(lp2086
g111
asbasbasbag68
(g84
g70
NtRp2087
(dp2088
g73
(dp2089
sg82
g1916
sg75
(lp2090
g68
(g89
g70
NtRp2091
(dp2092
g73
(dp2093
g93
g94
ssg82
g2087
sg75
(lp2094
g1242
asbag68
(g89
g70
NtRp2095
(dp2096
g73
(dp2097
g100
g101
ssg82
g2087
sg75
(lp2098
S':'
asbag68
(g89
g70
NtRp2099
(dp2100
g73
(dp2101
sg82
g2087
sg75
(lp2102
g68
(g69
g70
NtRp2103
(dp2104
g73
(dp2105
g81
I4
ssg82
g2099
sg75
(lp2106
g111
asbasbasbag68
(g84
g70
NtRp2107
(dp2108
g73
(dp2109
sg82
g1916
sg75
(lp2110
g68
(g89
g70
NtRp2111
(dp2112
g73
(dp2113
g93
g94
ssg82
g2107
sg75
(lp2114
g1480
asbag68
(g89
g70
NtRp2115
(dp2116
g73
(dp2117
g100
g101
ssg82
g2107
sg75
(lp2118
S':'
asbag68
(g89
g70
NtRp2119
(dp2120
g73
(dp2121
sg82
g2107
sg75
(lp2122
g68
(g69
g70
NtRp2123
(dp2124
g73
(dp2125
g81
I4
ssg82
g2119
sg75
(lp2126
g1493
asbasbasbag68
(g84
g70
NtRp2127
(dp2128
g73
(dp2129
sg82
g1916
sg75
(lp2130
g68
(g89
g70
NtRp2131
(dp2132
g73
(dp2133
g93
g94
ssg82
g2127
sg75
(lp2134
g1523
asbag68
(g89
g70
NtRp2135
(dp2136
g73
(dp2137
g100
g101
ssg82
g2127
sg75
(lp2138
S':'
asbag68
(g89
g70
NtRp2139
(dp2140
g73
(dp2141
sg82
g2127
sg75
(lp2142
g68
(g69
g70
NtRp2143
(dp2144
g73
(dp2145
g81
I4
ssg82
g2139
sg75
(lp2146
g68
(g77
g70
NtRp2147
(dp2148
g73
(dp2149
g81
I3
ssg82
Nsg75
(lp2150
g68
(g84
g70
NtRp2151
(dp2152
g73
(dp2153
sg82
g2147
sg75
(lp2154
g68
(g89
g70
NtRp2155
(dp2156
g73
(dp2157
sg82
g2151
sg75
(lp2158
g68
(g69
g70
NtRp2159
(dp2160
g73
(dp2161
g81
I3
ssg82
g2155
sg75
(lp2162
S'1'
asbasbasbag68
(g84
g70
NtRp2163
(dp2164
g73
(dp2165
sg82
g2147
sg75
(lp2166
g68
(g89
g70
NtRp2167
(dp2168
g73
(dp2169
sg82
g2163
sg75
(lp2170
g68
(g69
g70
NtRp2171
(dp2172
g73
(dp2173
g81
I3
ssg82
g2167
sg75
(lp2174
S'99'
p2175
asbasbasbag68
(g84
g70
NtRp2176
(dp2177
g73
(dp2178
sg82
g2147
sg75
(lp2179
g68
(g89
g70
NtRp2180
(dp2181
g73
(dp2182
sg82
g2176
sg75
(lp2183
g68
(g69
g70
NtRp2184
(dp2185
g73
(dp2186
g81
I3
ssg82
g2180
sg75
(lp2187
S'4'
asbasbasbag68
(g84
g70
NtRp2188
(dp2189
g73
(dp2190
sg82
g2147
sg75
(lp2191
g68
(g89
g70
NtRp2192
(dp2193
g73
(dp2194
sg82
g2188
sg75
(lp2195
g68
(g69
g70
NtRp2196
(dp2197
g73
(dp2198
g81
I3
ssg82
g2192
sg75
(lp2199
S'datetime.datetime(2011, 12, 14, 14, 46, 14)'
p2200
asbasbasbag68
(g84
g70
NtRp2201
(dp2202
g73
(dp2203
sg82
g2147
sg75
(lp2204
g68
(g89
g70
NtRp2205
(dp2206
g73
(dp2207
sg82
g2201
sg75
(lp2208
g68
(g69
g70
NtRp2209
(dp2210
g73
(dp2211
g81
I3
ssg82
g2205
sg75
(lp2212
g1602
asbasbasbasbasbasbasbasbasbasbasbag68
(g84
g70
NtRp2213
(dp2214
g73
(dp2215
sg82
g78
sg75
(lp2216
g68
(g89
g70
NtRp2217
(dp2218
g73
(dp2219
g93
g94
ssg82
g2213
sg75
(lp2220
S'is_https'
p2221
asbag68
(g89
g70
NtRp2222
(dp2223
g73
(dp2224
g100
g101
ssg82
g2213
sg75
(lp2225
S':'
asbag68
(g89
g70
NtRp2226
(dp2227
g73
(dp2228
sg82
g2213
sg75
(lp2229
g68
(g69
g70
NtRp2230
(dp2231
g73
(dp2232
g81
I5
ssg82
g2226
sg75
(lp2233
g111
asbasbasbag68
(g84
g70
NtRp2234
(dp2235
g73
(dp2236
sg82
g78
sg75
(lp2237
g68
(g89
g70
NtRp2238
(dp2239
g73
(dp2240
g93
g94
ssg82
g2234
sg75
(lp2241
S'is_local'
p2242
asbag68
(g89
g70
NtRp2243
(dp2244
g73
(dp2245
g100
g101
ssg82
g2234
sg75
(lp2246
S':'
asbag68
(g89
g70
NtRp2247
(dp2248
g73
(dp2249
sg82
g2234
sg75
(lp2250
g68
(g69
g70
NtRp2251
(dp2252
g73
(dp2253
g81
I5
ssg82
g2247
sg75
(lp2254
g1711
asbasbasbag68
(g84
g70
NtRp2255
(dp2256
g73
(dp2257
sg82
g78
sg75
(lp2258
g68
(g89
g70
NtRp2259
(dp2260
g73
(dp2261
g93
g94
ssg82
g2255
sg75
(lp2262
S'is_restful'
p2263
asbag68
(g89
g70
NtRp2264
(dp2265
g73
(dp2266
g100
g101
ssg82
g2255
sg75
(lp2267
S':'
asbag68
(g89
g70
NtRp2268
(dp2269
g73
(dp2270
sg82
g2255
sg75
(lp2271
g68
(g69
g70
NtRp2272
(dp2273
g73
(dp2274
g81
I5
ssg82
g2268
sg75
(lp2275
g111
asbasbasbag68
(g84
g70
NtRp2276
(dp2277
g73
(dp2278
sg82
g78
sg75
(lp2279
g68
(g89
g70
NtRp2280
(dp2281
g73
(dp2282
g93
g94
ssg82
g2276
sg75
(lp2283
S'now'
p2284
asbag68
(g89
g70
NtRp2285
(dp2286
g73
(dp2287
g100
g101
ssg82
g2276
sg75
(lp2288
S':'
asbag68
(g89
g70
NtRp2289
(dp2290
g73
(dp2291
sg82
g2276
sg75
(lp2292
g68
(g69
g70
NtRp2293
(dp2294
g73
(dp2295
g81
I5
ssg82
g2289
sg75
(lp2296
S'datetime.datetime(2012, 1, 17, 18, 42, 28, 450237)'
p2297
asbasbasbag68
(g84
g70
NtRp2298
(dp2299
g73
(dp2300
sg82
g78
sg75
(lp2301
g68
(g89
g70
NtRp2302
(dp2303
g73
(dp2304
g93
g94
ssg82
g2298
sg75
(lp2305
S'post_vars'
p2306
asbag68
(g89
g70
NtRp2307
(dp2308
g73
(dp2309
g100
g101
ssg82
g2298
sg75
(lp2310
S':'
asbag68
(g89
g70
NtRp2311
(dp2312
g73
(dp2313
sg82
g2298
sg75
(lp2314
g68
(g69
g70
NtRp2315
(dp2316
g73
(dp2317
g81
I5
ssg82
g2311
sg75
(lp2318
g68
(g77
g70
NtRp2319
(dp2320
g73
(dp2321
g81
I4
ssg82
Nsg75
(lp2322
sbasbasbasbag68
(g84
g70
NtRp2323
(dp2324
g73
(dp2325
sg82
g78
sg75
(lp2326
g68
(g89
g70
NtRp2327
(dp2328
g73
(dp2329
g93
g94
ssg82
g2323
sg75
(lp2330
S'url'
p2331
asbag68
(g89
g70
NtRp2332
(dp2333
g73
(dp2334
g100
g101
ssg82
g2323
sg75
(lp2335
S':'
asbag68
(g89
g70
NtRp2336
(dp2337
g73
(dp2338
sg82
g2323
sg75
(lp2339
g68
(g69
g70
NtRp2340
(dp2341
g73
(dp2342
g81
I5
ssg82
g2336
sg75
(lp2343
S'/pesquisa/default/resultado'
p2344
asbasbasbag68
(g84
g70
NtRp2345
(dp2346
g73
(dp2347
sg82
g78
sg75
(lp2348
g68
(g89
g70
NtRp2349
(dp2350
g73
(dp2351
g93
g94
ssg82
g2345
sg75
(lp2352
S'utcnow'
p2353
asbag68
(g89
g70
NtRp2354
(dp2355
g73
(dp2356
g100
g101
ssg82
g2345
sg75
(lp2357
S':'
asbag68
(g89
g70
NtRp2358
(dp2359
g73
(dp2360
sg82
g2345
sg75
(lp2361
g68
(g69
g70
NtRp2362
(dp2363
g73
(dp2364
g81
I5
ssg82
g2358
sg75
(lp2365
S'datetime.datetime(2012, 1, 17, 20, 42, 28, 450257)'
p2366
asbasbasbag68
(g84
g70
NtRp2367
(dp2368
g73
(dp2369
sg82
g78
sg75
(lp2370
g68
(g89
g70
NtRp2371
(dp2372
g73
(dp2373
g93
g94
ssg82
g2367
sg75
(lp2374
S'uuid'
p2375
asbag68
(g89
g70
NtRp2376
(dp2377
g73
(dp2378
g100
g101
ssg82
g2367
sg75
(lp2379
S':'
asbag68
(g89
g70
NtRp2380
(dp2381
g73
(dp2382
sg82
g2367
sg75
(lp2383
g68
(g69
g70
NtRp2384
(dp2385
g73
(dp2386
g81
I5
ssg82
g2380
sg75
(lp2387
S'pesquisa/127.0.0.1.2012-01-17.18-42-28.b5516b84-f115-4439-baad-44c4c36b53b2'
p2388
asbasbasbag68
(g84
g70
NtRp2389
(dp2390
g73
(dp2391
sg82
g78
sg75
(lp2392
g68
(g89
g70
NtRp2393
(dp2394
g73
(dp2395
g93
g94
ssg82
g2389
sg75
(lp2396
S'vars'
p2397
asbag68
(g89
g70
NtRp2398
(dp2399
g73
(dp2400
g100
g101
ssg82
g2389
sg75
(lp2401
S':'
asbag68
(g89
g70
NtRp2402
(dp2403
g73
(dp2404
sg82
g2389
sg75
(lp2405
g68
(g69
g70
NtRp2406
(dp2407
g73
(dp2408
g81
I5
ssg82
g2402
sg75
(lp2409
g68
(g77
g70
NtRp2410
(dp2411
g73
(dp2412
g81
I4
ssg82
Nsg75
(lp2413
sbasbasbasbag68
(g84
g70
NtRp2414
(dp2415
g73
(dp2416
sg82
g78
sg75
(lp2417
g68
(g89
g70
NtRp2418
(dp2419
g73
(dp2420
g93
g94
ssg82
g2414
sg75
(lp2421
S'wsgi'
p2422
asbag68
(g89
g70
NtRp2423
(dp2424
g73
(dp2425
g100
g101
ssg82
g2414
sg75
(lp2426
S':'
asbag68
(g89
g70
NtRp2427
(dp2428
g73
(dp2429
sg82
g2414
sg75
(lp2430
g68
(g69
g70
NtRp2431
(dp2432
g73
(dp2433
g81
I5
ssg82
g2427
sg75
(lp2434
g68
(g77
g70
NtRp2435
(dp2436
g73
(dp2437
g81
I4
ssg82
Nsg75
(lp2438
g68
(g84
g70
NtRp2439
(dp2440
g73
(dp2441
sg82
g2435
sg75
(lp2442
g68
(g89
g70
NtRp2443
(dp2444
g73
(dp2445
g93
g94
ssg82
g2439
sg75
(lp2446
S'environ'
p2447
asbag68
(g89
g70
NtRp2448
(dp2449
g73
(dp2450
g100
g101
ssg82
g2439
sg75
(lp2451
S':'
asbag68
(g89
g70
NtRp2452
(dp2453
g73
(dp2454
sg82
g2439
sg75
(lp2455
g68
(g69
g70
NtRp2456
(dp2457
g73
(dp2458
g81
I4
ssg82
g2452
sg75
(lp2459
g68
(g77
g70
NtRp2460
(dp2461
g73
(dp2462
g81
I3
ssg82
Nsg75
(lp2463
g68
(g84
g70
NtRp2464
(dp2465
g73
(dp2466
sg82
g2460
sg75
(lp2467
g68
(g89
g70
NtRp2468
(dp2469
g73
(dp2470
g93
g94
ssg82
g2464
sg75
(lp2471
S'HTTP_ACCEPT'
p2472
asbag68
(g89
g70
NtRp2473
(dp2474
g73
(dp2475
g100
g101
ssg82
g2464
sg75
(lp2476
S':'
asbag68
(g89
g70
NtRp2477
(dp2478
g73
(dp2479
sg82
g2464
sg75
(lp2480
g68
(g69
g70
NtRp2481
(dp2482
g73
(dp2483
g81
I3
ssg82
g2477
sg75
(lp2484
g1014
asbasbasbag68
(g84
g70
NtRp2485
(dp2486
g73
(dp2487
sg82
g2460
sg75
(lp2488
g68
(g89
g70
NtRp2489
(dp2490
g73
(dp2491
g93
g94
ssg82
g2485
sg75
(lp2492
S'HTTP_ACCEPT_CHARSET'
p2493
asbag68
(g89
g70
NtRp2494
(dp2495
g73
(dp2496
g100
g101
ssg82
g2485
sg75
(lp2497
S':'
asbag68
(g89
g70
NtRp2498
(dp2499
g73
(dp2500
sg82
g2485
sg75
(lp2501
g68
(g69
g70
NtRp2502
(dp2503
g73
(dp2504
g81
I3
ssg82
g2498
sg75
(lp2505
g1036
asbasbasbag68
(g84
g70
NtRp2506
(dp2507
g73
(dp2508
sg82
g2460
sg75
(lp2509
g68
(g89
g70
NtRp2510
(dp2511
g73
(dp2512
g93
g94
ssg82
g2506
sg75
(lp2513
S'HTTP_ACCEPT_ENCODING'
p2514
asbag68
(g89
g70
NtRp2515
(dp2516
g73
(dp2517
g100
g101
ssg82
g2506
sg75
(lp2518
S':'
asbag68
(g89
g70
NtRp2519
(dp2520
g73
(dp2521
sg82
g2506
sg75
(lp2522
g68
(g69
g70
NtRp2523
(dp2524
g73
(dp2525
g81
I3
ssg82
g2519
sg75
(lp2526
g1058
asbasbasbag68
(g84
g70
NtRp2527
(dp2528
g73
(dp2529
sg82
g2460
sg75
(lp2530
g68
(g89
g70
NtRp2531
(dp2532
g73
(dp2533
g93
g94
ssg82
g2527
sg75
(lp2534
S'HTTP_ACCEPT_LANGUAGE'
p2535
asbag68
(g89
g70
NtRp2536
(dp2537
g73
(dp2538
g100
g101
ssg82
g2527
sg75
(lp2539
S':'
asbag68
(g89
g70
NtRp2540
(dp2541
g73
(dp2542
sg82
g2527
sg75
(lp2543
g68
(g69
g70
NtRp2544
(dp2545
g73
(dp2546
g81
I3
ssg82
g2540
sg75
(lp2547
g1080
asbasbasbag68
(g84
g70
NtRp2548
(dp2549
g73
(dp2550
sg82
g2460
sg75
(lp2551
g68
(g89
g70
NtRp2552
(dp2553
g73
(dp2554
g93
g94
ssg82
g2548
sg75
(lp2555
S'HTTP_CACHE_CONTROL'
p2556
asbag68
(g89
g70
NtRp2557
(dp2558
g73
(dp2559
g100
g101
ssg82
g2548
sg75
(lp2560
S':'
asbag68
(g89
g70
NtRp2561
(dp2562
g73
(dp2563
sg82
g2548
sg75
(lp2564
g68
(g69
g70
NtRp2565
(dp2566
g73
(dp2567
g81
I3
ssg82
g2561
sg75
(lp2568
g1102
asbasbasbag68
(g84
g70
NtRp2569
(dp2570
g73
(dp2571
sg82
g2460
sg75
(lp2572
g68
(g89
g70
NtRp2573
(dp2574
g73
(dp2575
g93
g94
ssg82
g2569
sg75
(lp2576
S'HTTP_CONNECTION'
p2577
asbag68
(g89
g70
NtRp2578
(dp2579
g73
(dp2580
g100
g101
ssg82
g2569
sg75
(lp2581
S':'
asbag68
(g89
g70
NtRp2582
(dp2583
g73
(dp2584
sg82
g2569
sg75
(lp2585
g68
(g69
g70
NtRp2586
(dp2587
g73
(dp2588
g81
I3
ssg82
g2582
sg75
(lp2589
g1124
asbasbasbag68
(g84
g70
NtRp2590
(dp2591
g73
(dp2592
sg82
g2460
sg75
(lp2593
g68
(g89
g70
NtRp2594
(dp2595
g73
(dp2596
g93
g94
ssg82
g2590
sg75
(lp2597
S'HTTP_COOKIE'
p2598
asbag68
(g89
g70
NtRp2599
(dp2600
g73
(dp2601
g100
g101
ssg82
g2590
sg75
(lp2602
S':'
asbag68
(g89
g70
NtRp2603
(dp2604
g73
(dp2605
sg82
g2590
sg75
(lp2606
g68
(g69
g70
NtRp2607
(dp2608
g73
(dp2609
g81
I3
ssg82
g2603
sg75
(lp2610
g1146
asbasbasbag68
(g84
g70
NtRp2611
(dp2612
g73
(dp2613
sg82
g2460
sg75
(lp2614
g68
(g89
g70
NtRp2615
(dp2616
g73
(dp2617
g93
g94
ssg82
g2611
sg75
(lp2618
S'HTTP_HOST'
p2619
asbag68
(g89
g70
NtRp2620
(dp2621
g73
(dp2622
g100
g101
ssg82
g2611
sg75
(lp2623
S':'
asbag68
(g89
g70
NtRp2624
(dp2625
g73
(dp2626
sg82
g2611
sg75
(lp2627
g68
(g69
g70
NtRp2628
(dp2629
g73
(dp2630
g81
I3
ssg82
g2624
sg75
(lp2631
g1168
asbasbasbag68
(g84
g70
NtRp2632
(dp2633
g73
(dp2634
sg82
g2460
sg75
(lp2635
g68
(g89
g70
NtRp2636
(dp2637
g73
(dp2638
g93
g94
ssg82
g2632
sg75
(lp2639
S'HTTP_REFERER'
p2640
asbag68
(g89
g70
NtRp2641
(dp2642
g73
(dp2643
g100
g101
ssg82
g2632
sg75
(lp2644
S':'
asbag68
(g89
g70
NtRp2645
(dp2646
g73
(dp2647
sg82
g2632
sg75
(lp2648
g68
(g69
g70
NtRp2649
(dp2650
g73
(dp2651
g81
I3
ssg82
g2645
sg75
(lp2652
g1190
asbasbasbag68
(g84
g70
NtRp2653
(dp2654
g73
(dp2655
sg82
g2460
sg75
(lp2656
g68
(g89
g70
NtRp2657
(dp2658
g73
(dp2659
g93
g94
ssg82
g2653
sg75
(lp2660
S'HTTP_USER_AGENT'
p2661
asbag68
(g89
g70
NtRp2662
(dp2663
g73
(dp2664
g100
g101
ssg82
g2653
sg75
(lp2665
S':'
asbag68
(g89
g70
NtRp2666
(dp2667
g73
(dp2668
sg82
g2653
sg75
(lp2669
g68
(g69
g70
NtRp2670
(dp2671
g73
(dp2672
g81
I3
ssg82
g2666
sg75
(lp2673
g1212
asbasbasbag68
(g84
g70
NtRp2674
(dp2675
g73
(dp2676
sg82
g2460
sg75
(lp2677
g68
(g89
g70
NtRp2678
(dp2679
g73
(dp2680
g93
g94
ssg82
g2674
sg75
(lp2681
S'PATH_INFO'
p2682
asbag68
(g89
g70
NtRp2683
(dp2684
g73
(dp2685
g100
g101
ssg82
g2674
sg75
(lp2686
S':'
asbag68
(g89
g70
NtRp2687
(dp2688
g73
(dp2689
sg82
g2674
sg75
(lp2690
g68
(g69
g70
NtRp2691
(dp2692
g73
(dp2693
g81
I3
ssg82
g2687
sg75
(lp2694
g1276
asbasbasbag68
(g84
g70
NtRp2695
(dp2696
g73
(dp2697
sg82
g2460
sg75
(lp2698
g68
(g89
g70
NtRp2699
(dp2700
g73
(dp2701
g93
g94
ssg82
g2695
sg75
(lp2702
S'QUERY_STRING'
p2703
asbag68
(g89
g70
NtRp2704
(dp2705
g73
(dp2706
g100
g101
ssg82
g2695
sg75
(lp2707
S':'
asbag68
(g89
g70
NtRp2708
(dp2709
g73
(dp2710
sg82
g2695
sg75
(lp2711
g68
(g69
g70
NtRp2712
(dp2713
g73
(dp2714
g81
I3
ssg82
g2708
sg75
(lp2715
S''
asbasbasbag68
(g84
g70
NtRp2716
(dp2717
g73
(dp2718
sg82
g2460
sg75
(lp2719
g68
(g89
g70
NtRp2720
(dp2721
g73
(dp2722
g93
g94
ssg82
g2716
sg75
(lp2723
S'REMOTE_ADDR'
p2724
asbag68
(g89
g70
NtRp2725
(dp2726
g73
(dp2727
g100
g101
ssg82
g2716
sg75
(lp2728
S':'
asbag68
(g89
g70
NtRp2729
(dp2730
g73
(dp2731
sg82
g2716
sg75
(lp2732
g68
(g69
g70
NtRp2733
(dp2734
g73
(dp2735
g81
I3
ssg82
g2729
sg75
(lp2736
g201
asbasbasbag68
(g84
g70
NtRp2737
(dp2738
g73
(dp2739
sg82
g2460
sg75
(lp2740
g68
(g89
g70
NtRp2741
(dp2742
g73
(dp2743
g93
g94
ssg82
g2737
sg75
(lp2744
S'REMOTE_PORT'
p2745
asbag68
(g89
g70
NtRp2746
(dp2747
g73
(dp2748
g100
g101
ssg82
g2737
sg75
(lp2749
S':'
asbag68
(g89
g70
NtRp2750
(dp2751
g73
(dp2752
sg82
g2737
sg75
(lp2753
g68
(g69
g70
NtRp2754
(dp2755
g73
(dp2756
g81
I3
ssg82
g2750
sg75
(lp2757
g1340
asbasbasbag68
(g84
g70
NtRp2758
(dp2759
g73
(dp2760
sg82
g2460
sg75
(lp2761
g68
(g89
g70
NtRp2762
(dp2763
g73
(dp2764
g93
g94
ssg82
g2758
sg75
(lp2765
S'REQUEST_METHOD'
p2766
asbag68
(g89
g70
NtRp2767
(dp2768
g73
(dp2769
g100
g101
ssg82
g2758
sg75
(lp2770
S':'
asbag68
(g89
g70
NtRp2771
(dp2772
g73
(dp2773
sg82
g2758
sg75
(lp2774
g68
(g69
g70
NtRp2775
(dp2776
g73
(dp2777
g81
I3
ssg82
g2771
sg75
(lp2778
g1362
asbasbasbag68
(g84
g70
NtRp2779
(dp2780
g73
(dp2781
sg82
g2460
sg75
(lp2782
g68
(g89
g70
NtRp2783
(dp2784
g73
(dp2785
g93
g94
ssg82
g2779
sg75
(lp2786
S'SCRIPT_NAME'
p2787
asbag68
(g89
g70
NtRp2788
(dp2789
g73
(dp2790
g100
g101
ssg82
g2779
sg75
(lp2791
S':'
asbag68
(g89
g70
NtRp2792
(dp2793
g73
(dp2794
sg82
g2779
sg75
(lp2795
g68
(g69
g70
NtRp2796
(dp2797
g73
(dp2798
g81
I3
ssg82
g2792
sg75
(lp2799
S''
asbasbasbag68
(g84
g70
NtRp2800
(dp2801
g73
(dp2802
sg82
g2460
sg75
(lp2803
g68
(g89
g70
NtRp2804
(dp2805
g73
(dp2806
g93
g94
ssg82
g2800
sg75
(lp2807
S'SERVER_NAME'
p2808
asbag68
(g89
g70
NtRp2809
(dp2810
g73
(dp2811
g100
g101
ssg82
g2800
sg75
(lp2812
S':'
asbag68
(g89
g70
NtRp2813
(dp2814
g73
(dp2815
sg82
g2800
sg75
(lp2816
g68
(g69
g70
NtRp2817
(dp2818
g73
(dp2819
g81
I3
ssg82
g2813
sg75
(lp2820
g1405
asbasbasbag68
(g84
g70
NtRp2821
(dp2822
g73
(dp2823
sg82
g2460
sg75
(lp2824
g68
(g89
g70
NtRp2825
(dp2826
g73
(dp2827
g93
g94
ssg82
g2821
sg75
(lp2828
S'SERVER_PORT'
p2829
asbag68
(g89
g70
NtRp2830
(dp2831
g73
(dp2832
g100
g101
ssg82
g2821
sg75
(lp2833
S':'
asbag68
(g89
g70
NtRp2834
(dp2835
g73
(dp2836
sg82
g2821
sg75
(lp2837
g68
(g69
g70
NtRp2838
(dp2839
g73
(dp2840
g81
I3
ssg82
g2834
sg75
(lp2841
g1427
asbasbasbag68
(g84
g70
NtRp2842
(dp2843
g73
(dp2844
sg82
g2460
sg75
(lp2845
g68
(g89
g70
NtRp2846
(dp2847
g73
(dp2848
g93
g94
ssg82
g2842
sg75
(lp2849
S'SERVER_PROTOCOL'
p2850
asbag68
(g89
g70
NtRp2851
(dp2852
g73
(dp2853
g100
g101
ssg82
g2842
sg75
(lp2854
S':'
asbag68
(g89
g70
NtRp2855
(dp2856
g73
(dp2857
sg82
g2842
sg75
(lp2858
g68
(g69
g70
NtRp2859
(dp2860
g73
(dp2861
g81
I3
ssg82
g2855
sg75
(lp2862
g1449
asbasbasbag68
(g84
g70
NtRp2863
(dp2864
g73
(dp2865
sg82
g2460
sg75
(lp2866
g68
(g89
g70
NtRp2867
(dp2868
g73
(dp2869
g93
g94
ssg82
g2863
sg75
(lp2870
S'SERVER_SOFTWARE'
p2871
asbag68
(g89
g70
NtRp2872
(dp2873
g73
(dp2874
g100
g101
ssg82
g2863
sg75
(lp2875
S':'
asbag68
(g89
g70
NtRp2876
(dp2877
g73
(dp2878
sg82
g2863
sg75
(lp2879
g68
(g69
g70
NtRp2880
(dp2881
g73
(dp2882
g81
I3
ssg82
g2876
sg75
(lp2883
g1471
asbasbasbag68
(g84
g70
NtRp2884
(dp2885
g73
(dp2886
sg82
g2460
sg75
(lp2887
g68
(g89
g70
NtRp2888
(dp2889
g73
(dp2890
g93
g94
ssg82
g2884
sg75
(lp2891
S'wsgi.errors'
p2892
asbag68
(g89
g70
NtRp2893
(dp2894
g73
(dp2895
g100
g101
ssg82
g2884
sg75
(lp2896
S':'
asbag68
(g89
g70
NtRp2897
(dp2898
g73
(dp2899
sg82
g2884
sg75
(lp2900
g68
(g69
g70
NtRp2901
(dp2902
g73
(dp2903
g81
I3
ssg82
g2897
sg75
(lp2904
S"<open file '<stderr>', mode 'w' at 0xb748a0d0>"
p2905
asbasbasbag68
(g84
g70
NtRp2906
(dp2907
g73
(dp2908
sg82
g2460
sg75
(lp2909
g68
(g89
g70
NtRp2910
(dp2911
g73
(dp2912
g93
g94
ssg82
g2906
sg75
(lp2913
S'wsgi.file_wrapper'
p2914
asbag68
(g89
g70
NtRp2915
(dp2916
g73
(dp2917
g100
g101
ssg82
g2906
sg75
(lp2918
S':'
asbag68
(g89
g70
NtRp2919
(dp2920
g73
(dp2921
sg82
g2906
sg75
(lp2922
g68
(g69
g70
NtRp2923
(dp2924
g73
(dp2925
g81
I3
ssg82
g2919
sg75
(lp2926
S'<class wsgiref.util.FileWrapper at 0x94031ac>'
p2927
asbasbasbag68
(g84
g70
NtRp2928
(dp2929
g73
(dp2930
sg82
g2460
sg75
(lp2931
g68
(g89
g70
NtRp2932
(dp2933
g73
(dp2934
g93
g94
ssg82
g2928
sg75
(lp2935
S'wsgi.input'
p2936
asbag68
(g89
g70
NtRp2937
(dp2938
g73
(dp2939
g100
g101
ssg82
g2928
sg75
(lp2940
S':'
asbag68
(g89
g70
NtRp2941
(dp2942
g73
(dp2943
sg82
g2928
sg75
(lp2944
g68
(g69
g70
NtRp2945
(dp2946
g73
(dp2947
g81
I3
ssg82
g2941
sg75
(lp2948
S'<cStringIO.StringO object at 0x98c7a00>'
p2949
asbasbasbag68
(g84
g70
NtRp2950
(dp2951
g73
(dp2952
sg82
g2460
sg75
(lp2953
g68
(g89
g70
NtRp2954
(dp2955
g73
(dp2956
g93
g94
ssg82
g2950
sg75
(lp2957
S'wsgi.multiprocess'
p2958
asbag68
(g89
g70
NtRp2959
(dp2960
g73
(dp2961
g100
g101
ssg82
g2950
sg75
(lp2962
S':'
asbag68
(g89
g70
NtRp2963
(dp2964
g73
(dp2965
sg82
g2950
sg75
(lp2966
g68
(g69
g70
NtRp2967
(dp2968
g73
(dp2969
g81
I3
ssg82
g2963
sg75
(lp2970
g111
asbasbasbag68
(g84
g70
NtRp2971
(dp2972
g73
(dp2973
sg82
g2460
sg75
(lp2974
g68
(g89
g70
NtRp2975
(dp2976
g73
(dp2977
g93
g94
ssg82
g2971
sg75
(lp2978
S'wsgi.multithread'
p2979
asbag68
(g89
g70
NtRp2980
(dp2981
g73
(dp2982
g100
g101
ssg82
g2971
sg75
(lp2983
S':'
asbag68
(g89
g70
NtRp2984
(dp2985
g73
(dp2986
sg82
g2971
sg75
(lp2987
g68
(g69
g70
NtRp2988
(dp2989
g73
(dp2990
g81
I3
ssg82
g2984
sg75
(lp2991
g1711
asbasbasbag68
(g84
g70
NtRp2992
(dp2993
g73
(dp2994
sg82
g2460
sg75
(lp2995
g68
(g89
g70
NtRp2996
(dp2997
g73
(dp2998
g93
g94
ssg82
g2992
sg75
(lp2999
S'wsgi.run_once'
p3000
asbag68
(g89
g70
NtRp3001
(dp3002
g73
(dp3003
g100
g101
ssg82
g2992
sg75
(lp3004
S':'
asbag68
(g89
g70
NtRp3005
(dp3006
g73
(dp3007
sg82
g2992
sg75
(lp3008
g68
(g69
g70
NtRp3009
(dp3010
g73
(dp3011
g81
I3
ssg82
g3005
sg75
(lp3012
g111
asbasbasbag68
(g84
g70
NtRp3013
(dp3014
g73
(dp3015
sg82
g2460
sg75
(lp3016
g68
(g89
g70
NtRp3017
(dp3018
g73
(dp3019
g93
g94
ssg82
g3013
sg75
(lp3020
S'wsgi.url_scheme'
p3021
asbag68
(g89
g70
NtRp3022
(dp3023
g73
(dp3024
g100
g101
ssg82
g3013
sg75
(lp3025
S':'
asbag68
(g89
g70
NtRp3026
(dp3027
g73
(dp3028
sg82
g3013
sg75
(lp3029
g68
(g69
g70
NtRp3030
(dp3031
g73
(dp3032
g81
I3
ssg82
g3026
sg75
(lp3033
g1754
asbasbasbag68
(g84
g70
NtRp3034
(dp3035
g73
(dp3036
sg82
g2460
sg75
(lp3037
g68
(g89
g70
NtRp3038
(dp3039
g73
(dp3040
g93
g94
ssg82
g3034
sg75
(lp3041
S'wsgi.version'
p3042
asbag68
(g89
g70
NtRp3043
(dp3044
g73
(dp3045
g100
g101
ssg82
g3034
sg75
(lp3046
S':'
asbag68
(g89
g70
NtRp3047
(dp3048
g73
(dp3049
sg82
g3034
sg75
(lp3050
g68
(g69
g70
NtRp3051
(dp3052
g73
(dp3053
g81
I3
ssg82
g3047
sg75
(lp3054
S'1'
asbasbasbasbasbasbasbasbasbasbasbasbasbsS'frames'
p3055
(lp3056
(dp3057
S'file'
p3058
S'/home/diego/web2py/gluon/restricted.py'
p3059
sS'dump'
p3060
(dp3061
S'code'
p3062
S'r\'response.write(" <html>\\n  <head>\\n    <title>Pe.../a></div>\\n     <hr>\\n\\n</html>\\n", escape=False)\''
p3063
sS'layer'
p3064
S"'/home/diego/web2py/applications/pesquisa/views/default/resultado.html'"
p3065
sS'global compile2'
p3066
S'<function compile2>'
p3067
sS'ccode'
p3068
S'undefined'
p3069
ssS'lnum'
p3070
I203
sS'lines'
p3071
(dp3072
I198
S"    environment['__file__'] = layer"
p3073
sI199
S'    try:'
p3074
sI200
S'        if type(code) == types.CodeType:'
p3075
sI201
S'            ccode = code'
p3076
sI202
S'        else:'
p3077
sI203
S'            ccode = compile2(code,layer)'
p3078
sI204
S'        exec ccode in environment'
p3079
sI205
S'    except HTTP:'
p3080
sI206
S'        raise'
p3081
sI207
S'    except RestrictedError:'
p3082
ssS'call'
p3083
S'(code=r\'response.write(" <html>\\n  <head>\\n    <title>Pe.../a></div>\\n     <hr>\\n\\n</html>\\n", escape=False)\', environment={\'A\': <class \'gluon.html.A\'>, \'Auth\': <class \'gluon.tools.Auth\'>, \'B\': <class \'gluon.html.B\'>, \'BEAUTIFY\': <class \'gluon.html.BEAUTIFY\'>, \'BODY\': <class \'gluon.html.BODY\'>, \'BR\': <class \'gluon.html.BR\'>, \'BUTTON\': <class \'gluon.html.BUTTON\'>, \'CAT\': <class \'gluon.html.CAT\'>, \'CENTER\': <class \'gluon.html.CENTER\'>, \'CLEANUP\': <class \'gluon.validators.CLEANUP\'>, ...}, layer=\'/home/diego/web2py/applications/pesquisa/views/default/resultado.html\')'
p3084
sS'func'
p3085
S'restricted'
p3086
sa(dp3087
g3058
S'/home/diego/web2py/gluon/restricted.py'
p3088
sg3060
(dp3089
S'builtincompile'
p3090
S'<built-in function compile>'
p3091
sS'code'
p3092
S'r\'response.write(" <html>\\n  <head>\\n    <title>Pe.../a></div>\\n     <hr>\\n\\n</html>\\n", escape=False)\''
p3093
sS'code.rstrip'
p3094
S'<built-in method rstrip of str object>'
p3095
sS').replace'
p3096
g3069
sS'layer'
p3097
S"'/home/diego/web2py/applications/pesquisa/views/default/resultado.html'"
p3098
ssg3070
I189
sg3071
(dp3099
I192
S'    """'
p3100
sI193
S'    runs code in environment and returns the output. if an exception occurs'
p3101
sI184
S''
sI185
S'def compile2(code,layer):'
p3102
sI186
S'    """'
p3103
sI187
S"    The +'\\n' is necessary else compile fails when code ends in a comment."
p3104
sI188
S'    """'
p3105
sI189
S"    return compile(code.rstrip().replace('\\r\\n','\\n')+'\\n', layer, 'exec')"
p3106
sI190
S''
sI191
S"def restricted(code, environment=None, layer='Unknown'):"
p3107
ssg3083
S'(code=r\'response.write(" <html>\\n  <head>\\n    <title>Pe.../a></div>\\n     <hr>\\n\\n</html>\\n", escape=False)\', layer=\'/home/diego/web2py/applications/pesquisa/views/default/resultado.html\')'
p3108
sg3085
S'compile2'
p3109
sasS'pyver'
p3110
S'Python 2.7.2+: /usr/bin/python'
p3111
sS'session'
p3112
g68
(g69
g70
NtRp3113
(dp3114
g73
(dp3115
sg75
(lp3116
g68
(g77
g70
NtRp3117
(dp3118
g73
(dp3119
g81
I5
ssg82
Nsg75
(lp3120
sbasbsS'etype'
p3121
S"<type 'exceptions.SyntaxError'>"
p3122
sS'date'
p3123
S'Tue Jan 17 18:42:28 2012'
p3124
sS'response'
p3125
g68
(g69
g70
NtRp3126
(dp3127
g73
(dp3128
sg75
(lp3129
g68
(g77
g70
NtRp3130
(dp3131
g73
(dp3132
g81
I5
ssg82
Nsg75
(lp3133
g68
(g84
g70
NtRp3134
(dp3135
g73
(dp3136
sg82
g3130
sg75
(lp3137
g68
(g89
g70
NtRp3138
(dp3139
g73
(dp3140
g93
g94
ssg82
g3134
sg75
(lp3141
g166
asbag68
(g89
g70
NtRp3142
(dp3143
g73
(dp3144
g100
g101
ssg82
g3134
sg75
(lp3145
S':'
asbag68
(g89
g70
NtRp3146
(dp3147
g73
(dp3148
sg82
g3134
sg75
(lp3149
g68
(g69
g70
NtRp3150
(dp3151
g73
(dp3152
g81
I5
ssg82
g3146
sg75
(lp3153
S'<cStringIO.StringO object at 0x99f5760>'
p3154
asbasbasbag68
(g84
g70
NtRp3155
(dp3156
g73
(dp3157
sg82
g3130
sg75
(lp3158
g68
(g89
g70
NtRp3159
(dp3160
g73
(dp3161
g93
g94
ssg82
g3155
sg75
(lp3162
g232
asbag68
(g89
g70
NtRp3163
(dp3164
g73
(dp3165
g100
g101
ssg82
g3155
sg75
(lp3166
S':'
asbag68
(g89
g70
NtRp3167
(dp3168
g73
(dp3169
sg82
g3155
sg75
(lp3170
g68
(g69
g70
NtRp3171
(dp3172
g73
(dp3173
g81
I5
ssg82
g3167
sg75
(lp3174
g68
(g77
g70
NtRp3175
(dp3176
g73
(dp3177
g81
I4
ssg82
Nsg75
(lp3178
g68
(g84
g70
NtRp3179
(dp3180
g73
(dp3181
sg82
g3175
sg75
(lp3182
g68
(g89
g70
NtRp3183
(dp3184
g73
(dp3185
g93
g94
ssg82
g3179
sg75
(lp3186
S'session_id_pesquisa'
p3187
asbag68
(g89
g70
NtRp3188
(dp3189
g73
(dp3190
g100
g101
ssg82
g3179
sg75
(lp3191
S':'
asbag68
(g89
g70
NtRp3192
(dp3193
g73
(dp3194
sg82
g3179
sg75
(lp3195
g68
(g69
g70
NtRp3196
(dp3197
g73
(dp3198
g81
I4
ssg82
g3192
sg75
(lp3199
g68
(g77
g70
NtRp3200
(dp3201
g73
(dp3202
g81
I3
ssg82
Nsg75
(lp3203
g68
(g84
g70
NtRp3204
(dp3205
g73
(dp3206
sg82
g3200
sg75
(lp3207
g68
(g89
g70
NtRp3208
(dp3209
g73
(dp3210
g93
g94
ssg82
g3204
sg75
(lp3211
g282
asbag68
(g89
g70
NtRp3212
(dp3213
g73
(dp3214
g100
g101
ssg82
g3204
sg75
(lp3215
S':'
asbag68
(g89
g70
NtRp3216
(dp3217
g73
(dp3218
sg82
g3204
sg75
(lp3219
g68
(g69
g70
NtRp3220
(dp3221
g73
(dp3222
g81
I3
ssg82
g3216
sg75
(lp3223
S''
asbasbasbag68
(g84
g70
NtRp3224
(dp3225
g73
(dp3226
sg82
g3200
sg75
(lp3227
g68
(g89
g70
NtRp3228
(dp3229
g73
(dp3230
g93
g94
ssg82
g3224
sg75
(lp3231
g303
asbag68
(g89
g70
NtRp3232
(dp3233
g73
(dp3234
g100
g101
ssg82
g3224
sg75
(lp3235
S':'
asbag68
(g89
g70
NtRp3236
(dp3237
g73
(dp3238
sg82
g3224
sg75
(lp3239
g68
(g69
g70
NtRp3240
(dp3241
g73
(dp3242
g81
I3
ssg82
g3236
sg75
(lp3243
S''
asbasbasbag68
(g84
g70
NtRp3244
(dp3245
g73
(dp3246
sg82
g3200
sg75
(lp3247
g68
(g89
g70
NtRp3248
(dp3249
g73
(dp3250
g93
g94
ssg82
g3244
sg75
(lp3251
g324
asbag68
(g89
g70
NtRp3252
(dp3253
g73
(dp3254
g100
g101
ssg82
g3244
sg75
(lp3255
S':'
asbag68
(g89
g70
NtRp3256
(dp3257
g73
(dp3258
sg82
g3244
sg75
(lp3259
g68
(g69
g70
NtRp3260
(dp3261
g73
(dp3262
g81
I3
ssg82
g3256
sg75
(lp3263
S''
asbasbasbag68
(g84
g70
NtRp3264
(dp3265
g73
(dp3266
sg82
g3200
sg75
(lp3267
g68
(g89
g70
NtRp3268
(dp3269
g73
(dp3270
g93
g94
ssg82
g3264
sg75
(lp3271
g345
asbag68
(g89
g70
NtRp3272
(dp3273
g73
(dp3274
g100
g101
ssg82
g3264
sg75
(lp3275
S':'
asbag68
(g89
g70
NtRp3276
(dp3277
g73
(dp3278
sg82
g3264
sg75
(lp3279
g68
(g69
g70
NtRp3280
(dp3281
g73
(dp3282
g81
I3
ssg82
g3276
sg75
(lp3283
S''
asbasbasbag68
(g84
g70
NtRp3284
(dp3285
g73
(dp3286
sg82
g3200
sg75
(lp3287
g68
(g89
g70
NtRp3288
(dp3289
g73
(dp3290
g93
g94
ssg82
g3284
sg75
(lp3291
g366
asbag68
(g89
g70
NtRp3292
(dp3293
g73
(dp3294
g100
g101
ssg82
g3284
sg75
(lp3295
S':'
asbag68
(g89
g70
NtRp3296
(dp3297
g73
(dp3298
sg82
g3284
sg75
(lp3299
g68
(g69
g70
NtRp3300
(dp3301
g73
(dp3302
g81
I3
ssg82
g3296
sg75
(lp3303
S''
asbasbasbag68
(g84
g70
NtRp3304
(dp3305
g73
(dp3306
sg82
g3200
sg75
(lp3307
g68
(g89
g70
NtRp3308
(dp3309
g73
(dp3310
g93
g94
ssg82
g3304
sg75
(lp3311
g387
asbag68
(g89
g70
NtRp3312
(dp3313
g73
(dp3314
g100
g101
ssg82
g3304
sg75
(lp3315
S':'
asbag68
(g89
g70
NtRp3316
(dp3317
g73
(dp3318
sg82
g3304
sg75
(lp3319
g68
(g69
g70
NtRp3320
(dp3321
g73
(dp3322
g81
I3
ssg82
g3316
sg75
(lp3323
S'/'
asbasbasbag68
(g84
g70
NtRp3324
(dp3325
g73
(dp3326
sg82
g3200
sg75
(lp3327
g68
(g89
g70
NtRp3328
(dp3329
g73
(dp3330
g93
g94
ssg82
g3324
sg75
(lp3331
g408
asbag68
(g89
g70
NtRp3332
(dp3333
g73
(dp3334
g100
g101
ssg82
g3324
sg75
(lp3335
S':'
asbag68
(g89
g70
NtRp3336
(dp3337
g73
(dp3338
sg82
g3324
sg75
(lp3339
g68
(g69
g70
NtRp3340
(dp3341
g73
(dp3342
g81
I3
ssg82
g3336
sg75
(lp3343
S''
asbasbasbag68
(g84
g70
NtRp3344
(dp3345
g73
(dp3346
sg82
g3200
sg75
(lp3347
g68
(g89
g70
NtRp3348
(dp3349
g73
(dp3350
g93
g94
ssg82
g3344
sg75
(lp3351
g429
asbag68
(g89
g70
NtRp3352
(dp3353
g73
(dp3354
g100
g101
ssg82
g3344
sg75
(lp3355
S':'
asbag68
(g89
g70
NtRp3356
(dp3357
g73
(dp3358
sg82
g3344
sg75
(lp3359
g68
(g69
g70
NtRp3360
(dp3361
g73
(dp3362
g81
I3
ssg82
g3356
sg75
(lp3363
S''
asbasbasbasbasbasbasbasbasbasbasbag68
(g84
g70
NtRp3364
(dp3365
g73
(dp3366
sg82
g3130
sg75
(lp3367
g68
(g89
g70
NtRp3368
(dp3369
g73
(dp3370
g93
g94
ssg82
g3364
sg75
(lp3371
S'files'
p3372
asbag68
(g89
g70
NtRp3373
(dp3374
g73
(dp3375
g100
g101
ssg82
g3364
sg75
(lp3376
S':'
asbag68
(g89
g70
NtRp3377
(dp3378
g73
(dp3379
sg82
g3364
sg75
(lp3380
g68
(g69
g70
NtRp3381
(dp3382
g73
(dp3383
g81
I5
ssg82
g3377
sg75
(lp3384
g68
(g77
g70
NtRp3385
(dp3386
g73
(dp3387
g81
I4
ssg82
Nsg75
(lp3388
sbasbasbasbag68
(g84
g70
NtRp3389
(dp3390
g73
(dp3391
sg82
g3130
sg75
(lp3392
g68
(g89
g70
NtRp3393
(dp3394
g73
(dp3395
g93
g94
ssg82
g3389
sg75
(lp3396
S'flash'
p3397
asbag68
(g89
g70
NtRp3398
(dp3399
g73
(dp3400
g100
g101
ssg82
g3389
sg75
(lp3401
S':'
asbag68
(g89
g70
NtRp3402
(dp3403
g73
(dp3404
sg82
g3389
sg75
(lp3405
g68
(g69
g70
NtRp3406
(dp3407
g73
(dp3408
g81
I5
ssg82
g3402
sg75
(lp3409
S''
asbasbasbag68
(g84
g70
NtRp3410
(dp3411
g73
(dp3412
sg82
g3130
sg75
(lp3413
g68
(g89
g70
NtRp3414
(dp3415
g73
(dp3416
g93
g94
ssg82
g3410
sg75
(lp3417
S'generic_patterns'
p3418
asbag68
(g89
g70
NtRp3419
(dp3420
g73
(dp3421
g100
g101
ssg82
g3410
sg75
(lp3422
S':'
asbag68
(g89
g70
NtRp3423
(dp3424
g73
(dp3425
sg82
g3410
sg75
(lp3426
g68
(g69
g70
NtRp3427
(dp3428
g73
(dp3429
g81
I5
ssg82
g3423
sg75
(lp3430
g68
(g77
g70
NtRp3431
(dp3432
g73
(dp3433
g81
I4
ssg82
Nsg75
(lp3434
g68
(g84
g70
NtRp3435
(dp3436
g73
(dp3437
sg82
g3431
sg75
(lp3438
g68
(g89
g70
NtRp3439
(dp3440
g73
(dp3441
sg82
g3435
sg75
(lp3442
g68
(g69
g70
NtRp3443
(dp3444
g73
(dp3445
g81
I4
ssg82
g3439
sg75
(lp3446
S'*'
asbasbasbasbasbasbasbag68
(g84
g70
NtRp3447
(dp3448
g73
(dp3449
sg82
g3130
sg75
(lp3450
g68
(g89
g70
NtRp3451
(dp3452
g73
(dp3453
g93
g94
ssg82
g3447
sg75
(lp3454
S'headers'
p3455
asbag68
(g89
g70
NtRp3456
(dp3457
g73
(dp3458
g100
g101
ssg82
g3447
sg75
(lp3459
S':'
asbag68
(g89
g70
NtRp3460
(dp3461
g73
(dp3462
sg82
g3447
sg75
(lp3463
g68
(g69
g70
NtRp3464
(dp3465
g73
(dp3466
g81
I5
ssg82
g3460
sg75
(lp3467
g68
(g77
g70
NtRp3468
(dp3469
g73
(dp3470
g81
I4
ssg82
Nsg75
(lp3471
g68
(g84
g70
NtRp3472
(dp3473
g73
(dp3474
sg82
g3468
sg75
(lp3475
g68
(g89
g70
NtRp3476
(dp3477
g73
(dp3478
g93
g94
ssg82
g3472
sg75
(lp3479
S'Cache-Control'
p3480
asbag68
(g89
g70
NtRp3481
(dp3482
g73
(dp3483
g100
g101
ssg82
g3472
sg75
(lp3484
S':'
asbag68
(g89
g70
NtRp3485
(dp3486
g73
(dp3487
sg82
g3472
sg75
(lp3488
g68
(g69
g70
NtRp3489
(dp3490
g73
(dp3491
g81
I4
ssg82
g3485
sg75
(lp3492
S'no-store, no-cache, must-revalidate, post-check=0, pre-check=0'
p3493
asbasbasbag68
(g84
g70
NtRp3494
(dp3495
g73
(dp3496
sg82
g3468
sg75
(lp3497
g68
(g89
g70
NtRp3498
(dp3499
g73
(dp3500
g93
g94
ssg82
g3494
sg75
(lp3501
S'Content-Type'
p3502
asbag68
(g89
g70
NtRp3503
(dp3504
g73
(dp3505
g100
g101
ssg82
g3494
sg75
(lp3506
S':'
asbag68
(g89
g70
NtRp3507
(dp3508
g73
(dp3509
sg82
g3494
sg75
(lp3510
g68
(g69
g70
NtRp3511
(dp3512
g73
(dp3513
g81
I4
ssg82
g3507
sg75
(lp3514
S'text/html; charset=utf-8'
p3515
asbasbasbag68
(g84
g70
NtRp3516
(dp3517
g73
(dp3518
sg82
g3468
sg75
(lp3519
g68
(g89
g70
NtRp3520
(dp3521
g73
(dp3522
g93
g94
ssg82
g3516
sg75
(lp3523
S'Expires'
p3524
asbag68
(g89
g70
NtRp3525
(dp3526
g73
(dp3527
g100
g101
ssg82
g3516
sg75
(lp3528
S':'
asbag68
(g89
g70
NtRp3529
(dp3530
g73
(dp3531
sg82
g3516
sg75
(lp3532
g68
(g69
g70
NtRp3533
(dp3534
g73
(dp3535
g81
I4
ssg82
g3529
sg75
(lp3536
S'Tue, 17 Jan 2012 20:42:28 GMT'
p3537
asbasbasbag68
(g84
g70
NtRp3538
(dp3539
g73
(dp3540
sg82
g3468
sg75
(lp3541
g68
(g89
g70
NtRp3542
(dp3543
g73
(dp3544
g93
g94
ssg82
g3538
sg75
(lp3545
S'Pragma'
p3546
asbag68
(g89
g70
NtRp3547
(dp3548
g73
(dp3549
g100
g101
ssg82
g3538
sg75
(lp3550
S':'
asbag68
(g89
g70
NtRp3551
(dp3552
g73
(dp3553
sg82
g3538
sg75
(lp3554
g68
(g69
g70
NtRp3555
(dp3556
g73
(dp3557
g81
I4
ssg82
g3551
sg75
(lp3558
S'no-cache'
p3559
asbasbasbag68
(g84
g70
NtRp3560
(dp3561
g73
(dp3562
sg82
g3468
sg75
(lp3563
g68
(g89
g70
NtRp3564
(dp3565
g73
(dp3566
g93
g94
ssg82
g3560
sg75
(lp3567
S'X-Powered-By'
p3568
asbag68
(g89
g70
NtRp3569
(dp3570
g73
(dp3571
g100
g101
ssg82
g3560
sg75
(lp3572
S':'
asbag68
(g89
g70
NtRp3573
(dp3574
g73
(dp3575
sg82
g3560
sg75
(lp3576
g68
(g69
g70
NtRp3577
(dp3578
g73
(dp3579
g81
I4
ssg82
g3573
sg75
(lp3580
S'web2py'
p3581
asbasbasbasbasbasbasbag68
(g84
g70
NtRp3582
(dp3583
g73
(dp3584
sg82
g3130
sg75
(lp3585
g68
(g89
g70
NtRp3586
(dp3587
g73
(dp3588
g93
g94
ssg82
g3582
sg75
(lp3589
S'menu'
p3590
asbag68
(g89
g70
NtRp3591
(dp3592
g73
(dp3593
g100
g101
ssg82
g3582
sg75
(lp3594
S':'
asbag68
(g89
g70
NtRp3595
(dp3596
g73
(dp3597
sg82
g3582
sg75
(lp3598
g68
(g69
g70
NtRp3599
(dp3600
g73
(dp3601
g81
I5
ssg82
g3595
sg75
(lp3602
g68
(g77
g70
NtRp3603
(dp3604
g73
(dp3605
g81
I4
ssg82
Nsg75
(lp3606
g68
(g84
g70
NtRp3607
(dp3608
g73
(dp3609
sg82
g3603
sg75
(lp3610
g68
(g89
g70
NtRp3611
(dp3612
g73
(dp3613
sg82
g3607
sg75
(lp3614
g68
(g69
g70
NtRp3615
(dp3616
g73
(dp3617
g81
I4
ssg82
g3611
sg75
(lp3618
g68
(g77
g70
NtRp3619
(dp3620
g73
(dp3621
g81
I3
ssg82
Nsg75
(lp3622
g68
(g84
g70
NtRp3623
(dp3624
g73
(dp3625
sg82
g3619
sg75
(lp3626
g68
(g89
g70
NtRp3627
(dp3628
g73
(dp3629
sg82
g3623
sg75
(lp3630
g68
(g69
g70
NtRp3631
(dp3632
g73
(dp3633
g81
I3
ssg82
g3627
sg75
(lp3634
cgluon.languages
lazyT_unpickle
p3635
(S't\x04\x00\x00\x00Home'
tRp3636
asbasbasbag68
(g84
g70
NtRp3637
(dp3638
g73
(dp3639
sg82
g3619
sg75
(lp3640
g68
(g89
g70
NtRp3641
(dp3642
g73
(dp3643
sg82
g3637
sg75
(lp3644
g68
(g69
g70
NtRp3645
(dp3646
g73
(dp3647
g81
I3
ssg82
g3641
sg75
(lp3648
g111
asbasbasbag68
(g84
g70
NtRp3649
(dp3650
g73
(dp3651
sg82
g3619
sg75
(lp3652
g68
(g89
g70
NtRp3653
(dp3654
g73
(dp3655
sg82
g3649
sg75
(lp3656
g68
(g69
g70
NtRp3657
(dp3658
g73
(dp3659
g81
I3
ssg82
g3653
sg75
(lp3660
S'/pesquisa/default/index'
p3661
asbasbasbag68
(g84
g70
NtRp3662
(dp3663
g73
(dp3664
sg82
g3619
sg75
(lp3665
g68
(g89
g70
NtRp3666
(dp3667
g73
(dp3668
sg82
g3662
sg75
(lp3669
g68
(g69
g70
NtRp3670
(dp3671
g73
(dp3672
g81
I3
ssg82
g3666
sg75
(lp3673
g68
(g77
g70
NtRp3674
(dp3675
g73
(dp3676
g81
I2
ssg82
Nsg75
(lp3677
sbasbasbasbasbasbasbasbag68
(g84
g70
NtRp3678
(dp3679
g73
(dp3680
sg82
g3603
sg75
(lp3681
g68
(g89
g70
NtRp3682
(dp3683
g73
(dp3684
sg82
g3678
sg75
(lp3685
g68
(g69
g70
NtRp3686
(dp3687
g73
(dp3688
g81
I4
ssg82
g3682
sg75
(lp3689
g68
(g77
g70
NtRp3690
(dp3691
g73
(dp3692
g81
I3
ssg82
Nsg75
(lp3693
g68
(g84
g70
NtRp3694
(dp3695
g73
(dp3696
sg82
g3690
sg75
(lp3697
g68
(g89
g70
NtRp3698
(dp3699
g73
(dp3700
sg82
g3694
sg75
(lp3701
g68
(g69
g70
NtRp3702
(dp3703
g73
(dp3704
g81
I3
ssg82
g3698
sg75
(lp3705
g68
(cgluon.html
SPAN
p3706
g70
NtRp3707
(dp3708
g73
(dp3709
g93
S'color:yellow'
p3710
ssg82
Nsg75
(lp3711
g3581
asbasbasbasbag68
(g84
g70
NtRp3712
(dp3713
g73
(dp3714
sg82
g3690
sg75
(lp3715
g68
(g89
g70
NtRp3716
(dp3717
g73
(dp3718
sg82
g3712
sg75
(lp3719
g68
(g69
g70
NtRp3720
(dp3721
g73
(dp3722
g81
I3
ssg82
g3716
sg75
(lp3723
g111
asbasbasbag68
(g84
g70
NtRp3724
(dp3725
g73
(dp3726
sg82
g3690
sg75
(lp3727
g68
(g89
g70
NtRp3728
(dp3729
g73
(dp3730
sg82
g3724
sg75
(lp3731
g68
(g69
g70
NtRp3732
(dp3733
g73
(dp3734
g81
I3
ssg82
g3728
sg75
(lp3735
S'None'
p3736
asbasbasbag68
(g84
g70
NtRp3737
(dp3738
g73
(dp3739
sg82
g3690
sg75
(lp3740
g68
(g89
g70
NtRp3741
(dp3742
g73
(dp3743
sg82
g3737
sg75
(lp3744
g68
(g69
g70
NtRp3745
(dp3746
g73
(dp3747
g81
I3
ssg82
g3741
sg75
(lp3748
g68
(g77
g70
NtRp3749
(dp3750
g73
(dp3751
g81
I2
ssg82
Nsg75
(lp3752
g68
(g84
g70
NtRp3753
(dp3754
g73
(dp3755
sg82
g3749
sg75
(lp3756
g68
(g89
g70
NtRp3757
(dp3758
g73
(dp3759
sg82
g3753
sg75
(lp3760
g68
(g69
g70
NtRp3761
(dp3762
g73
(dp3763
g81
I2
ssg82
g3757
sg75
(lp3764
g68
(g77
g70
NtRp3765
(dp3766
g73
(dp3767
g81
I1
ssg82
Nsg75
(lp3768
g68
(g84
g70
NtRp3769
(dp3770
g73
(dp3771
sg82
g3765
sg75
(lp3772
g68
(g89
g70
NtRp3773
(dp3774
g73
(dp3775
sg82
g3769
sg75
(lp3776
g68
(g69
g70
NtRp3777
(dp3778
g73
(dp3779
g81
I1
ssg82
g3773
sg75
(lp3780
g3635
(S's\x08\x00\x00\x00My Sites'
tRp3781
asbasbasbag68
(g84
g70
NtRp3782
(dp3783
g73
(dp3784
sg82
g3765
sg75
(lp3785
g68
(g89
g70
NtRp3786
(dp3787
g73
(dp3788
sg82
g3782
sg75
(lp3789
g68
(g69
g70
NtRp3790
(dp3791
g73
(dp3792
g81
I1
ssg82
g3786
sg75
(lp3793
I00
asbasbasbag68
(g84
g70
NtRp3794
(dp3795
g73
(dp3796
sg82
g3765
sg75
(lp3797
g68
(g89
g70
NtRp3798
(dp3799
g73
(dp3800
sg82
g3794
sg75
(lp3801
g68
(g69
g70
NtRp3802
(dp3803
g73
(dp3804
g81
I1
ssg82
g3798
sg75
(lp3805
S'/admin/default/site'
p3806
asbasbasbasbasbasbasbag68
(g84
g70
NtRp3807
(dp3808
g73
(dp3809
sg82
g3749
sg75
(lp3810
g68
(g89
g70
NtRp3811
(dp3812
g73
(dp3813
sg82
g3807
sg75
(lp3814
g68
(g69
g70
NtRp3815
(dp3816
g73
(dp3817
g81
I2
ssg82
g3811
sg75
(lp3818
g68
(g77
g70
NtRp3819
(dp3820
g73
(dp3821
g81
I1
ssg82
Nsg75
(lp3822
g68
(g84
g70
NtRp3823
(dp3824
g73
(dp3825
sg82
g3819
sg75
(lp3826
g68
(g89
g70
NtRp3827
(dp3828
g73
(dp3829
sg82
g3823
sg75
(lp3830
g68
(g69
g70
NtRp3831
(dp3832
g73
(dp3833
g81
I1
ssg82
g3827
sg75
(lp3834
g3635
(S's\x08\x00\x00\x00This App'
tRp3835
asbasbasbag68
(g84
g70
NtRp3836
(dp3837
g73
(dp3838
sg82
g3819
sg75
(lp3839
g68
(g89
g70
NtRp3840
(dp3841
g73
(dp3842
sg82
g3836
sg75
(lp3843
g68
(g69
g70
NtRp3844
(dp3845
g73
(dp3846
g81
I1
ssg82
g3840
sg75
(lp3847
I00
asbasbasbag68
(g84
g70
NtRp3848
(dp3849
g73
(dp3850
sg82
g3819
sg75
(lp3851
g68
(g89
g70
NtRp3852
(dp3853
g73
(dp3854
sg82
g3848
sg75
(lp3855
g68
(g69
g70
NtRp3856
(dp3857
g73
(dp3858
g81
I1
ssg82
g3852
sg75
(lp3859
S'/admin/default/design/pesquisa'
p3860
asbasbasbag68
(g84
g70
NtRp3861
(dp3862
g73
(dp3863
sg82
g3819
sg75
(lp3864
g68
(g89
g70
NtRp3865
(dp3866
g73
(dp3867
sg82
g3861
sg75
(lp3868
g68
(g69
g70
NtRp3869
(dp3870
g73
(dp3871
g81
I1
ssg82
g3865
sg75
(lp3872
(lp3873
(g3635
(S't\x0b\x00\x00\x00Controlador'
tRp3874
I00
S'/admin/default/edit/pesquisa/controllers/default.py'
tp3875
a(g3635
(S's\x0e\x00\x00\x00Visualiza\xc3\xa7\xc3\xa3o'
tRp3876
I00
S'/admin/default/edit/pesquisa/views/default/resultado.html'
tp3877
a(g3635
(S't\x06\x00\x00\x00Layout'
tRp3878
I00
S'/admin/default/edit/pesquisa/views/layout.html'
tp3879
a(g3635
(S't\n\x00\x00\x00Stylesheet'
tRp3880
I00
S'/admin/default/edit/pesquisa/static/css/web2py.css'
tp3881
a(g3635
(S's\t\x00\x00\x00Modelo BD'
tRp3882
I00
S'/admin/default/edit/pesquisa/models/db.py'
tp3883
a(g3635
(S's\x0e\x00\x00\x00Modelo de Menu'
tRp3884
I00
S'/admin/default/edit/pesquisa/models/menu.py'
tp3885
a(g3635
(S's\x0e\x00\x00\x00Banco de dados'
tRp3886
I00
S'/pesquisa/appadmin/index'
tp3887
a(g3635
(S't\x06\x00\x00\x00Errors'
tRp3888
I00
S'/admin/default/errors/pesquisa'
tp3889
a(g3635
(S't\x05\x00\x00\x00About'
tRp3890
I00
S'/admin/default/about/pesquisa'
tp3891
aasbasbasbasbasbasbasbag68
(g84
g70
NtRp3892
(dp3893
g73
(dp3894
sg82
g3749
sg75
(lp3895
g68
(g89
g70
NtRp3896
(dp3897
g73
(dp3898
sg82
g3892
sg75
(lp3899
g68
(g69
g70
NtRp3900
(dp3901
g73
(dp3902
g81
I2
ssg82
g3896
sg75
(lp3903
g68
(g77
g70
NtRp3904
(dp3905
g73
(dp3906
g81
I1
ssg82
Nsg75
(lp3907
g68
(g84
g70
NtRp3908
(dp3909
g73
(dp3910
sg82
g3904
sg75
(lp3911
g68
(g89
g70
NtRp3912
(dp3913
g73
(dp3914
sg82
g3908
sg75
(lp3915
g68
(g69
g70
NtRp3916
(dp3917
g73
(dp3918
g81
I1
ssg82
g3912
sg75
(lp3919
S'web2py.com'
p3920
asbasbasbag68
(g84
g70
NtRp3921
(dp3922
g73
(dp3923
sg82
g3904
sg75
(lp3924
g68
(g89
g70
NtRp3925
(dp3926
g73
(dp3927
sg82
g3921
sg75
(lp3928
g68
(g69
g70
NtRp3929
(dp3930
g73
(dp3931
g81
I1
ssg82
g3925
sg75
(lp3932
I00
asbasbasbag68
(g84
g70
NtRp3933
(dp3934
g73
(dp3935
sg82
g3904
sg75
(lp3936
g68
(g89
g70
NtRp3937
(dp3938
g73
(dp3939
sg82
g3933
sg75
(lp3940
g68
(g69
g70
NtRp3941
(dp3942
g73
(dp3943
g81
I1
ssg82
g3937
sg75
(lp3944
S'http://www.web2py.com'
p3945
asbasbasbag68
(g84
g70
NtRp3946
(dp3947
g73
(dp3948
sg82
g3904
sg75
(lp3949
g68
(g89
g70
NtRp3950
(dp3951
g73
(dp3952
sg82
g3946
sg75
(lp3953
g68
(g69
g70
NtRp3954
(dp3955
g73
(dp3956
g81
I1
ssg82
g3950
sg75
(lp3957
(lp3958
(g3635
(S't\x08\x00\x00\x00Download'
tRp3959
I00
S'http://www.web2py.com/examples/default/download'
p3960
tp3961
a(g3635
(S't\x07\x00\x00\x00Support'
tRp3962
I00
S'http://www.web2py.com/examples/default/support'
p3963
tp3964
a(g3635
(S't\x04\x00\x00\x00Demo'
tRp3965
I00
S'http://web2py.com/demo_admin'
p3966
tp3967
a(g3635
(S's\x0e\x00\x00\x00Quick Examples'
tRp3968
I00
S'http://web2py.com/examples/default/examples'
p3969
tp3970
a(g3635
(S't\x03\x00\x00\x00FAQ'
tRp3971
I00
S'http://web2py.com/AlterEgo'
p3972
tp3973
a(g3635
(S't\x06\x00\x00\x00Videos'
tRp3974
I00
S'http://www.web2py.com/examples/default/videos/'
p3975
tp3976
a(g3635
(S's\x11\x00\x00\x00Free Applications'
tRp3977
I00
S'http://web2py.com/appliances'
p3978
tp3979
a(g3635
(S't\x07\x00\x00\x00Plugins'
tRp3980
I00
S'http://web2py.com/plugins'
p3981
tp3982
a(g3635
(S't\x07\x00\x00\x00Layouts'
tRp3983
I00
S'http://web2py.com/layouts'
p3984
tp3985
a(g3635
(S't\x07\x00\x00\x00Recipes'
tRp3986
I00
S'http://web2pyslices.com/'
p3987
tp3988
a(g3635
(S't\x08\x00\x00\x00Semantic'
tRp3989
I00
S'http://web2py.com/semantic'
p3990
tp3991
aasbasbasbasbasbasbasbag68
(g84
g70
NtRp3992
(dp3993
g73
(dp3994
sg82
g3749
sg75
(lp3995
g68
(g89
g70
NtRp3996
(dp3997
g73
(dp3998
sg82
g3992
sg75
(lp3999
g68
(g69
g70
NtRp4000
(dp4001
g73
(dp4002
g81
I2
ssg82
g3996
sg75
(lp4003
g68
(g77
g70
NtRp4004
(dp4005
g73
(dp4006
g81
I1
ssg82
Nsg75
(lp4007
g68
(g84
g70
NtRp4008
(dp4009
g73
(dp4010
sg82
g4004
sg75
(lp4011
g68
(g89
g70
NtRp4012
(dp4013
g73
(dp4014
sg82
g4008
sg75
(lp4015
g68
(g69
g70
NtRp4016
(dp4017
g73
(dp4018
g81
I1
ssg82
g4012
sg75
(lp4019
g3635
(S't\r\x00\x00\x00Documentation'
tRp4020
asbasbasbag68
(g84
g70
NtRp4021
(dp4022
g73
(dp4023
sg82
g4004
sg75
(lp4024
g68
(g89
g70
NtRp4025
(dp4026
g73
(dp4027
sg82
g4021
sg75
(lp4028
g68
(g69
g70
NtRp4029
(dp4030
g73
(dp4031
g81
I1
ssg82
g4025
sg75
(lp4032
I00
asbasbasbag68
(g84
g70
NtRp4033
(dp4034
g73
(dp4035
sg82
g4004
sg75
(lp4036
g68
(g89
g70
NtRp4037
(dp4038
g73
(dp4039
sg82
g4033
sg75
(lp4040
g68
(g69
g70
NtRp4041
(dp4042
g73
(dp4043
g81
I1
ssg82
g4037
sg75
(lp4044
S'http://www.web2py.com/book'
p4045
asbasbasbag68
(g84
g70
NtRp4046
(dp4047
g73
(dp4048
sg82
g4004
sg75
(lp4049
g68
(g89
g70
NtRp4050
(dp4051
g73
(dp4052
sg82
g4046
sg75
(lp4053
g68
(g69
g70
NtRp4054
(dp4055
g73
(dp4056
g81
I1
ssg82
g4050
sg75
(lp4057
(lp4058
(g3635
(S't\x07\x00\x00\x00Preface'
tRp4059
I00
S'http://www.web2py.com/book/default/chapter/00'
p4060
tp4061
a(g3635
(S't\x0c\x00\x00\x00Introduction'
tRp4062
I00
S'http://www.web2py.com/book/default/chapter/01'
p4063
tp4064
a(g3635
(S't\x06\x00\x00\x00Python'
tRp4065
I00
S'http://www.web2py.com/book/default/chapter/02'
p4066
tp4067
a(g3635
(S't\x08\x00\x00\x00Overview'
tRp4068
I00
S'http://www.web2py.com/book/default/chapter/03'
p4069
tp4070
a(g3635
(S's\x08\x00\x00\x00The Core'
tRp4071
I00
S'http://www.web2py.com/book/default/chapter/04'
p4072
tp4073
a(g3635
(S's\t\x00\x00\x00The Views'
tRp4074
I00
S'http://www.web2py.com/book/default/chapter/05'
p4075
tp4076
a(g3635
(S's\x0e\x00\x00\x00Banco de dados'
tRp4077
I00
S'http://www.web2py.com/book/default/chapter/06'
p4078
tp4079
a(g3635
(S's\x14\x00\x00\x00Forms and Validators'
tRp4080
I00
S'http://www.web2py.com/book/default/chapter/07'
p4081
tp4082
a(g3635
(S's\r\x00\x00\x00Email and SMS'
tRp4083
I00
S'http://www.web2py.com/book/default/chapter/08'
p4084
tp4085
a(g3635
(S's\x0e\x00\x00\x00Access Control'
tRp4086
I00
S'http://www.web2py.com/book/default/chapter/09'
p4087
tp4088
a(g3635
(S't\x08\x00\x00\x00Services'
tRp4089
I00
S'http://www.web2py.com/book/default/chapter/10'
p4090
tp4091
a(g3635
(S's\x0c\x00\x00\x00Ajax Recipes'
tRp4092
I00
S'http://www.web2py.com/book/default/chapter/11'
p4093
tp4094
a(g3635
(S's\x16\x00\x00\x00Components and Plugins'
tRp4095
I00
S'http://www.web2py.com/book/default/chapter/12'
p4096
tp4097
a(g3635
(S's\x12\x00\x00\x00Deployment Recipes'
tRp4098
I00
S'http://www.web2py.com/book/default/chapter/13'
p4099
tp4100
a(g3635
(S's\r\x00\x00\x00Other Recipes'
tRp4101
I00
S'http://www.web2py.com/book/default/chapter/14'
p4102
tp4103
a(g3635
(S's\r\x00\x00\x00Buy this book'
tRp4104
I00
S'http://stores.lulu.com/web2py'
p4105
tp4106
aasbasbasbasbasbasbasbag68
(g84
g70
NtRp4107
(dp4108
g73
(dp4109
sg82
g3749
sg75
(lp4110
g68
(g89
g70
NtRp4111
(dp4112
g73
(dp4113
sg82
g4107
sg75
(lp4114
g68
(g69
g70
NtRp4115
(dp4116
g73
(dp4117
g81
I2
ssg82
g4111
sg75
(lp4118
g68
(g77
g70
NtRp4119
(dp4120
g73
(dp4121
g81
I1
ssg82
Nsg75
(lp4122
g68
(g84
g70
NtRp4123
(dp4124
g73
(dp4125
sg82
g4119
sg75
(lp4126
g68
(g89
g70
NtRp4127
(dp4128
g73
(dp4129
sg82
g4123
sg75
(lp4130
g68
(g69
g70
NtRp4131
(dp4132
g73
(dp4133
g81
I1
ssg82
g4127
sg75
(lp4134
g3635
(S't\t\x00\x00\x00Community'
tRp4135
asbasbasbag68
(g84
g70
NtRp4136
(dp4137
g73
(dp4138
sg82
g4119
sg75
(lp4139
g68
(g89
g70
NtRp4140
(dp4141
g73
(dp4142
sg82
g4136
sg75
(lp4143
g68
(g69
g70
NtRp4144
(dp4145
g73
(dp4146
g81
I1
ssg82
g4140
sg75
(lp4147
I00
asbasbasbag68
(g84
g70
NtRp4148
(dp4149
g73
(dp4150
sg82
g4119
sg75
(lp4151
g68
(g89
g70
NtRp4152
(dp4153
g73
(dp4154
sg82
g4148
sg75
(lp4155
g68
(g69
g70
NtRp4156
(dp4157
g73
(dp4158
g81
I1
ssg82
g4152
sg75
(lp4159
Nasbasbasbag68
(g84
g70
NtRp4160
(dp4161
g73
(dp4162
sg82
g4119
sg75
(lp4163
g68
(g89
g70
NtRp4164
(dp4165
g73
(dp4166
sg82
g4160
sg75
(lp4167
g68
(g69
g70
NtRp4168
(dp4169
g73
(dp4170
g81
I1
ssg82
g4164
sg75
(lp4171
(lp4172
(g3635
(S't\x06\x00\x00\x00Groups'
tRp4173
I00
S'http://www.web2py.com/examples/default/usergroups'
p4174
tp4175
a(g3635
(S't\x07\x00\x00\x00Twitter'
tRp4176
I00
S'http://twitter.com/web2py'
p4177
tp4178
a(g3635
(S's\t\x00\x00\x00Live Chat'
tRp4179
I00
S'http://webchat.freenode.net/?channels=web2py'
p4180
tp4181
aasbasbasbasbasbasbasbag68
(g84
g70
NtRp4182
(dp4183
g73
(dp4184
sg82
g3749
sg75
(lp4185
g68
(g89
g70
NtRp4186
(dp4187
g73
(dp4188
sg82
g4182
sg75
(lp4189
g68
(g69
g70
NtRp4190
(dp4191
g73
(dp4192
g81
I2
ssg82
g4186
sg75
(lp4193
g68
(g77
g70
NtRp4194
(dp4195
g73
(dp4196
g81
I1
ssg82
Nsg75
(lp4197
g68
(g84
g70
NtRp4198
(dp4199
g73
(dp4200
sg82
g4194
sg75
(lp4201
g68
(g89
g70
NtRp4202
(dp4203
g73
(dp4204
sg82
g4198
sg75
(lp4205
g68
(g69
g70
NtRp4206
(dp4207
g73
(dp4208
g81
I1
ssg82
g4202
sg75
(lp4209
g3635
(S't\x07\x00\x00\x00Plugins'
tRp4210
asbasbasbag68
(g84
g70
NtRp4211
(dp4212
g73
(dp4213
sg82
g4194
sg75
(lp4214
g68
(g89
g70
NtRp4215
(dp4216
g73
(dp4217
sg82
g4211
sg75
(lp4218
g68
(g69
g70
NtRp4219
(dp4220
g73
(dp4221
g81
I1
ssg82
g4215
sg75
(lp4222
I00
asbasbasbag68
(g84
g70
NtRp4223
(dp4224
g73
(dp4225
sg82
g4194
sg75
(lp4226
g68
(g89
g70
NtRp4227
(dp4228
g73
(dp4229
sg82
g4223
sg75
(lp4230
g68
(g69
g70
NtRp4231
(dp4232
g73
(dp4233
g81
I1
ssg82
g4227
sg75
(lp4234
Nasbasbasbag68
(g84
g70
NtRp4235
(dp4236
g73
(dp4237
sg82
g4194
sg75
(lp4238
g68
(g89
g70
NtRp4239
(dp4240
g73
(dp4241
sg82
g4235
sg75
(lp4242
g68
(g69
g70
NtRp4243
(dp4244
g73
(dp4245
g81
I1
ssg82
g4239
sg75
(lp4246
(lp4247
(S'plugin_wiki'
p4248
I00
S'http://web2py.com/examples/default/download'
p4249
tp4250
a(g3635
(S's\r\x00\x00\x00Other Plugins'
tRp4251
I00
g3981
tp4252
a(g3635
(S's\x0e\x00\x00\x00Layout Plugins'
tRp4253
I00
g3984
tp4254
aasbasbasbasbasbasbasbasbasbasbasbasbasbasbasbasbasbasbasbag68
(g84
g70
NtRp4255
(dp4256
g73
(dp4257
sg82
g3130
sg75
(lp4258
g68
(g89
g70
NtRp4259
(dp4260
g73
(dp4261
g93
g94
ssg82
g4255
sg75
(lp4262
S'meta'
p4263
asbag68
(g89
g70
NtRp4264
(dp4265
g73
(dp4266
g100
g101
ssg82
g4255
sg75
(lp4267
S':'
asbag68
(g89
g70
NtRp4268
(dp4269
g73
(dp4270
sg82
g4255
sg75
(lp4271
g68
(g69
g70
NtRp4272
(dp4273
g73
(dp4274
g81
I5
ssg82
g4268
sg75
(lp4275
g68
(g77
g70
NtRp4276
(dp4277
g73
(dp4278
g81
I4
ssg82
Nsg75
(lp4279
g68
(g84
g70
NtRp4280
(dp4281
g73
(dp4282
sg82
g4276
sg75
(lp4283
g68
(g89
g70
NtRp4284
(dp4285
g73
(dp4286
g93
g94
ssg82
g4280
sg75
(lp4287
S'author'
p4288
asbag68
(g89
g70
NtRp4289
(dp4290
g73
(dp4291
g100
g101
ssg82
g4280
sg75
(lp4292
S':'
asbag68
(g89
g70
NtRp4293
(dp4294
g73
(dp4295
sg82
g4280
sg75
(lp4296
g68
(g69
g70
NtRp4297
(dp4298
g73
(dp4299
g81
I4
ssg82
g4293
sg75
(lp4300
S'Your Name <you@example.com>'
p4301
asbasbasbag68
(g84
g70
NtRp4302
(dp4303
g73
(dp4304
sg82
g4276
sg75
(lp4305
g68
(g89
g70
NtRp4306
(dp4307
g73
(dp4308
g93
g94
ssg82
g4302
sg75
(lp4309
S'copyright'
p4310
asbag68
(g89
g70
NtRp4311
(dp4312
g73
(dp4313
g100
g101
ssg82
g4302
sg75
(lp4314
S':'
asbag68
(g89
g70
NtRp4315
(dp4316
g73
(dp4317
sg82
g4302
sg75
(lp4318
g68
(g69
g70
NtRp4319
(dp4320
g73
(dp4321
g81
I4
ssg82
g4315
sg75
(lp4322
S'Copyright 2011'
p4323
asbasbasbag68
(g84
g70
NtRp4324
(dp4325
g73
(dp4326
sg82
g4276
sg75
(lp4327
g68
(g89
g70
NtRp4328
(dp4329
g73
(dp4330
g93
g94
ssg82
g4324
sg75
(lp4331
S'description'
p4332
asbag68
(g89
g70
NtRp4333
(dp4334
g73
(dp4335
g100
g101
ssg82
g4324
sg75
(lp4336
S':'
asbag68
(g89
g70
NtRp4337
(dp4338
g73
(dp4339
sg82
g4324
sg75
(lp4340
g68
(g69
g70
NtRp4341
(dp4342
g73
(dp4343
g81
I4
ssg82
g4337
sg75
(lp4344
S'a cool new app'
p4345
asbasbasbag68
(g84
g70
NtRp4346
(dp4347
g73
(dp4348
sg82
g4276
sg75
(lp4349
g68
(g89
g70
NtRp4350
(dp4351
g73
(dp4352
g93
g94
ssg82
g4346
sg75
(lp4353
S'generator'
p4354
asbag68
(g89
g70
NtRp4355
(dp4356
g73
(dp4357
g100
g101
ssg82
g4346
sg75
(lp4358
S':'
asbag68
(g89
g70
NtRp4359
(dp4360
g73
(dp4361
sg82
g4346
sg75
(lp4362
g68
(g69
g70
NtRp4363
(dp4364
g73
(dp4365
g81
I4
ssg82
g4359
sg75
(lp4366
S'Web2py Web Framework'
p4367
asbasbasbag68
(g84
g70
NtRp4368
(dp4369
g73
(dp4370
sg82
g4276
sg75
(lp4371
g68
(g89
g70
NtRp4372
(dp4373
g73
(dp4374
g93
g94
ssg82
g4368
sg75
(lp4375
S'keywords'
p4376
asbag68
(g89
g70
NtRp4377
(dp4378
g73
(dp4379
g100
g101
ssg82
g4368
sg75
(lp4380
S':'
asbag68
(g89
g70
NtRp4381
(dp4382
g73
(dp4383
sg82
g4368
sg75
(lp4384
g68
(g69
g70
NtRp4385
(dp4386
g73
(dp4387
g81
I4
ssg82
g4381
sg75
(lp4388
S'web2py, python, framework'
p4389
asbasbasbasbasbasbasbag68
(g84
g70
NtRp4390
(dp4391
g73
(dp4392
sg82
g3130
sg75
(lp4393
g68
(g89
g70
NtRp4394
(dp4395
g73
(dp4396
g93
g94
ssg82
g4390
sg75
(lp4397
S'postprocessing'
p4398
asbag68
(g89
g70
NtRp4399
(dp4400
g73
(dp4401
g100
g101
ssg82
g4390
sg75
(lp4402
S':'
asbag68
(g89
g70
NtRp4403
(dp4404
g73
(dp4405
sg82
g4390
sg75
(lp4406
g68
(g69
g70
NtRp4407
(dp4408
g73
(dp4409
g81
I5
ssg82
g4403
sg75
(lp4410
g68
(g77
g70
NtRp4411
(dp4412
g73
(dp4413
g81
I4
ssg82
Nsg75
(lp4414
sbasbasbasbag68
(g84
g70
NtRp4415
(dp4416
g73
(dp4417
sg82
g3130
sg75
(lp4418
g68
(g89
g70
NtRp4419
(dp4420
g73
(dp4421
g93
g94
ssg82
g4415
sg75
(lp4422
S'session_file'
p4423
asbag68
(g89
g70
NtRp4424
(dp4425
g73
(dp4426
g100
g101
ssg82
g4415
sg75
(lp4427
S':'
asbag68
(g89
g70
NtRp4428
(dp4429
g73
(dp4430
sg82
g4415
sg75
(lp4431
g68
(g69
g70
NtRp4432
(dp4433
g73
(dp4434
g81
I5
ssg82
g4428
sg75
(lp4435
S"<open file '/home/diego/web2py/applications/pesquisa/sessions/127.0.0.1-b7f9526b-9236-4917-b349-50966985a934', mode 'rb+' at 0x9fba9c0>"
p4436
asbasbasbag68
(g84
g70
NtRp4437
(dp4438
g73
(dp4439
sg82
g3130
sg75
(lp4440
g68
(g89
g70
NtRp4441
(dp4442
g73
(dp4443
g93
g94
ssg82
g4437
sg75
(lp4444
S'session_filename'
p4445
asbag68
(g89
g70
NtRp4446
(dp4447
g73
(dp4448
g100
g101
ssg82
g4437
sg75
(lp4449
S':'
asbag68
(g89
g70
NtRp4450
(dp4451
g73
(dp4452
sg82
g4437
sg75
(lp4453
g68
(g69
g70
NtRp4454
(dp4455
g73
(dp4456
g81
I5
ssg82
g4450
sg75
(lp4457
S'/home/diego/web2py/applications/pesquisa/sessions/127.0.0.1-b7f9526b-9236-4917-b349-50966985a934'
p4458
asbasbasbag68
(g84
g70
NtRp4459
(dp4460
g73
(dp4461
sg82
g3130
sg75
(lp4462
g68
(g89
g70
NtRp4463
(dp4464
g73
(dp4465
g93
g94
ssg82
g4459
sg75
(lp4466
S'session_id'
p4467
asbag68
(g89
g70
NtRp4468
(dp4469
g73
(dp4470
g100
g101
ssg82
g4459
sg75
(lp4471
S':'
asbag68
(g89
g70
NtRp4472
(dp4473
g73
(dp4474
sg82
g4459
sg75
(lp4475
g68
(g69
g70
NtRp4476
(dp4477
g73
(dp4478
g81
I5
ssg82
g4472
sg75
(lp4479
S'127.0.0.1-b7f9526b-9236-4917-b349-50966985a934'
p4480
asbasbasbag68
(g84
g70
NtRp4481
(dp4482
g73
(dp4483
sg82
g3130
sg75
(lp4484
g68
(g89
g70
NtRp4485
(dp4486
g73
(dp4487
g93
g94
ssg82
g4481
sg75
(lp4488
S'session_id_name'
p4489
asbag68
(g89
g70
NtRp4490
(dp4491
g73
(dp4492
g100
g101
ssg82
g4481
sg75
(lp4493
S':'
asbag68
(g89
g70
NtRp4494
(dp4495
g73
(dp4496
sg82
g4481
sg75
(lp4497
g68
(g69
g70
NtRp4498
(dp4499
g73
(dp4500
g81
I5
ssg82
g4494
sg75
(lp4501
g3187
asbasbasbag68
(g84
g70
NtRp4502
(dp4503
g73
(dp4504
sg82
g3130
sg75
(lp4505
g68
(g89
g70
NtRp4506
(dp4507
g73
(dp4508
g93
g94
ssg82
g4502
sg75
(lp4509
S'session_locked'
p4510
asbag68
(g89
g70
NtRp4511
(dp4512
g73
(dp4513
g100
g101
ssg82
g4502
sg75
(lp4514
S':'
asbag68
(g89
g70
NtRp4515
(dp4516
g73
(dp4517
sg82
g4502
sg75
(lp4518
g68
(g69
g70
NtRp4519
(dp4520
g73
(dp4521
g81
I5
ssg82
g4515
sg75
(lp4522
g1711
asbasbasbag68
(g84
g70
NtRp4523
(dp4524
g73
(dp4525
sg82
g3130
sg75
(lp4526
g68
(g89
g70
NtRp4527
(dp4528
g73
(dp4529
g93
g94
ssg82
g4523
sg75
(lp4530
S'session_new'
p4531
asbag68
(g89
g70
NtRp4532
(dp4533
g73
(dp4534
g100
g101
ssg82
g4523
sg75
(lp4535
S':'
asbag68
(g89
g70
NtRp4536
(dp4537
g73
(dp4538
sg82
g4523
sg75
(lp4539
g68
(g69
g70
NtRp4540
(dp4541
g73
(dp4542
g81
I5
ssg82
g4536
sg75
(lp4543
g111
asbasbasbag68
(g84
g70
NtRp4544
(dp4545
g73
(dp4546
sg82
g3130
sg75
(lp4547
g68
(g89
g70
NtRp4548
(dp4549
g73
(dp4550
g93
g94
ssg82
g4544
sg75
(lp4551
S'status'
p4552
asbag68
(g89
g70
NtRp4553
(dp4554
g73
(dp4555
g100
g101
ssg82
g4544
sg75
(lp4556
S':'
asbag68
(g89
g70
NtRp4557
(dp4558
g73
(dp4559
sg82
g4544
sg75
(lp4560
g68
(g69
g70
NtRp4561
(dp4562
g73
(dp4563
g81
I5
ssg82
g4557
sg75
(lp4564
S'200'
p4565
asbasbasbag68
(g84
g70
NtRp4566
(dp4567
g73
(dp4568
sg82
g3130
sg75
(lp4569
g68
(g89
g70
NtRp4570
(dp4571
g73
(dp4572
g93
g94
ssg82
g4566
sg75
(lp4573
S'subtitle'
p4574
asbag68
(g89
g70
NtRp4575
(dp4576
g73
(dp4577
g100
g101
ssg82
g4566
sg75
(lp4578
S':'
asbag68
(g89
g70
NtRp4579
(dp4580
g73
(dp4581
sg82
g4566
sg75
(lp4582
g68
(g69
g70
NtRp4583
(dp4584
g73
(dp4585
g81
I5
ssg82
g4579
sg75
(lp4586
g3635
(S's\x0f\x00\x00\x00Personalize-me!'
tRp4587
asbasbasbag68
(g84
g70
NtRp4588
(dp4589
g73
(dp4590
sg82
g3130
sg75
(lp4591
g68
(g89
g70
NtRp4592
(dp4593
g73
(dp4594
g93
g94
ssg82
g4588
sg75
(lp4595
S'title'
p4596
asbag68
(g89
g70
NtRp4597
(dp4598
g73
(dp4599
g100
g101
ssg82
g4588
sg75
(lp4600
S':'
asbag68
(g89
g70
NtRp4601
(dp4602
g73
(dp4603
sg82
g4588
sg75
(lp4604
g68
(g69
g70
NtRp4605
(dp4606
g73
(dp4607
g81
I5
ssg82
g4601
sg75
(lp4608
S'Pesquisa'
p4609
asbasbasbag68
(g84
g70
NtRp4610
(dp4611
g73
(dp4612
sg82
g3130
sg75
(lp4613
g68
(g89
g70
NtRp4614
(dp4615
g73
(dp4616
g93
g94
ssg82
g4610
sg75
(lp4617
g2375
asbag68
(g89
g70
NtRp4618
(dp4619
g73
(dp4620
g100
g101
ssg82
g4610
sg75
(lp4621
S':'
asbag68
(g89
g70
NtRp4622
(dp4623
g73
(dp4624
sg82
g4610
sg75
(lp4625
g68
(g69
g70
NtRp4626
(dp4627
g73
(dp4628
g81
I5
ssg82
g4622
sg75
(lp4629
g2388
asbasbasbag68
(g84
g70
NtRp4630
(dp4631
g73
(dp4632
sg82
g3130
sg75
(lp4633
g68
(g89
g70
NtRp4634
(dp4635
g73
(dp4636
g93
g94
ssg82
g4630
sg75
(lp4637
S'view'
p4638
asbag68
(g89
g70
NtRp4639
(dp4640
g73
(dp4641
g100
g101
ssg82
g4630
sg75
(lp4642
S':'
asbag68
(g89
g70
NtRp4643
(dp4644
g73
(dp4645
sg82
g4630
sg75
(lp4646
g68
(g69
g70
NtRp4647
(dp4648
g73
(dp4649
g81
I5
ssg82
g4643
sg75
(lp4650
S'default/resultado.html'
p4651
asbasbasbasbasbsS'locals'
p4652
(dp4653
g4
S"'/home/diego/web2py/applications/pesquisa/views/default/resultado.html'"
p4654
sg6
S'r\'response.write(" <html>\\n  <head>\\n    <title>Pe.../a></div>\\n     <hr>\\n\\n</html>\\n", escape=False)\''
p4655
sssS'traceback'
p4656
S'Traceback (most recent call last):\n  File "/home/diego/web2py/gluon/restricted.py", line 203, in restricted\n    ccode = compile2(code,layer)\n  File "/home/diego/web2py/gluon/restricted.py", line 189, in compile2\n    return compile(code.rstrip().replace(\'\\r\\n\',\'\\n\')+\'\\n\', layer, \'exec\')\n  File "/home/diego/web2py/applications/pesquisa/views/default/resultado.html", line 3\n    response.write(for d in dic:)\n                     ^\nSyntaxError: invalid syntax\n'
p4657
s.