(dp1
S'output'
p2
S"<type 'exceptions.KeyError'> 'AC'"
p3
sS'layer'
p4
S'/home/diego/web2py/applications/pesquisa/views/default/resultado.html'
p5
sS'code'
p6
S'response.write(" <html>\\n  <head>\\n    <title>Pesquisa Salarios Python</title>\\n    <hr>\\n\\tPesquisa Salarios Python<br>\\n\\t  <div>\\n\\t  <a href=\'/pesquisa/default/index\'>Formulario</a>|\\n\\t  <a href=\'/pesquisa/default/resultado\'>Resultado</a>\\n\\t  </div>\\n    <hr>\\n    <body>\\n        ", escape=False)\nresponse.write(\'\\n\\n\\n\\n<h1>CLT</h1><br>\\n<table border="5">\\n <tr> <th>Estado</th><th>Media Salario Jr</th> <th>Media Salario Pleno</th> <th>Media Salario Senior</th> <th>Media Salario Outros</th></tr>\\n \', escape=False)\nfor state in state_list:\n    response.write(\'\\n <tr>\\n  <td>\', escape=False)\n    response.write(state)\n    response.write(\'</td>\\n  <td>\', escape=False)\n    response.write(dic[state]["junior"])\n    response.write(\'</td>\\n  <td>\', escape=False)\n    response.write(dic[state]["pleno"])\n    response.write(\'</td>\\n  <td>\', escape=False)\n    response.write(dic[state]["senior"])\n    response.write(\'</td>\\n  <td>\', escape=False)\n    response.write(dic[state]["outros"])\n    response.write(\'</td>\\n  </tr>\\n \', escape=False)\n    pass\nresponse.write(\'\\n</table>\\n<br>\\n<h1>PJ</h1><br>\\n<table border="5">\\n <tr> <th>Estado</th><th>Media Salario Jr</th> <th>Media Salario Pleno</th> <th>Media Salario Senior</th> <th>Media Salario Outros</th></tr>\\n \', escape=False)\nfor state in state_list:\n    response.write(\'\\n <tr>\\n  <td>\', escape=False)\n    response.write(state)\n    response.write(\'</td>\\n  <td>\', escape=False)\n    response.write(dic2[state]["junior"])\n    response.write(\'</td>\\n  <td>\', escape=False)\n    response.write(dic2[state]["pleno"])\n    response.write(\'</td>\\n  <td>\', escape=False)\n    response.write(dic2[state]["senior"])\n    response.write(\'</td>\\n  <td>\', escape=False)\n    response.write(dic2[state]["outros"])\n    response.write(\'</td>\\n  </tr>\\n \', escape=False)\n    pass\nresponse.write(\'\\n</table>\\n\', escape=False)\nresponse.write("\\n     </body>\\n\\n     <hr>\\n     <div align=RIGHT><a href=\'http://web2py.com/\'>Powered By Web2py</a></div>\\n     <div align=RIGHT><a href=\'http://br.linkedin.com/in/diegotostes \'>Diego Tostes Linkedin Profile</a></div>\\n     <hr>\\n\\n</html>\\n", escape=False)'
p7
sS'snapshot'
p8
(dp9
S'exception'
p10
(dp11
S'__hash__'
p12
S"<method-wrapper '__hash__' of exceptions.KeyError object>"
p13
sS'__setattr__'
p14
S"<method-wrapper '__setattr__' of exceptions.KeyError object>"
p15
sS'__reduce_ex__'
p16
S'<built-in method __reduce_ex__ of exceptions.KeyError object>'
p17
sS'__getslice__'
p18
S"<method-wrapper '__getslice__' of exceptions.KeyError object>"
p19
sS'__getitem__'
p20
S"<method-wrapper '__getitem__' of exceptions.KeyError object>"
p21
sS'__setstate__'
p22
S'<built-in method __setstate__ of exceptions.KeyError object>'
p23
sS'__reduce__'
p24
S'<built-in method __reduce__ of exceptions.KeyError object>'
p25
sS'__str__'
p26
S"<method-wrapper '__str__' of exceptions.KeyError object>"
p27
sS'__format__'
p28
S'<built-in method __format__ of exceptions.KeyError object>'
p29
sS'__getattribute__'
p30
S"<method-wrapper '__getattribute__' of exceptions.KeyError object>"
p31
sS'__class__'
p32
S"<type 'exceptions.KeyError'>"
p33
sS'__unicode__'
p34
S'<built-in method __unicode__ of exceptions.KeyError object>'
p35
sS'__delattr__'
p36
S"<method-wrapper '__delattr__' of exceptions.KeyError object>"
p37
sS'__subclasshook__'
p38
S'<built-in method __subclasshook__ of type object>'
p39
sS'__repr__'
p40
S"<method-wrapper '__repr__' of exceptions.KeyError object>"
p41
sS'args'
p42
S"('AC',)"
p43
sS'__dict__'
p44
S'{}'
p45
sS'__sizeof__'
p46
S'<built-in method __sizeof__ of exceptions.KeyError object>'
p47
sS'__doc__'
p48
S"'Mapping key not found.'"
p49
sS'__init__'
p50
S"<method-wrapper '__init__' of exceptions.KeyError object>"
p51
sS'__new__'
p52
S'<built-in method __new__ of type object>'
p53
ssS'evalue'
p54
S"'AC'"
p55
sS'request'
p56
ccopy_reg
_reconstructor
p57
(cgluon.html
BEAUTIFY
p58
c__builtin__
object
p59
NtRp60
(dp61
S'attributes'
p62
(dp63
sS'components'
p64
(lp65
g57
(cgluon.html
TABLE
p66
g59
NtRp67
(dp68
g62
(dp69
S'level'
p70
I5
ssS'parent'
p71
Nsg64
(lp72
g57
(cgluon.html
TR
p73
g59
NtRp74
(dp75
g62
(dp76
sg71
g67
sg64
(lp77
g57
(cgluon.html
TD
p78
g59
NtRp79
(dp80
g62
(dp81
S'_style'
p82
S'font-weight:bold;vertical-align:top'
p83
ssg71
g74
sg64
(lp84
S'ajax'
p85
asbag57
(g78
g59
NtRp86
(dp87
g62
(dp88
S'_valign'
p89
S'top'
p90
ssg71
g74
sg64
(lp91
S':'
asbag57
(g78
g59
NtRp92
(dp93
g62
(dp94
sg71
g74
sg64
(lp95
g57
(g58
g59
NtRp96
(dp97
g62
(dp98
g70
I5
ssg71
g92
sg64
(lp99
S'False'
p100
asbasbasbag57
(g73
g59
NtRp101
(dp102
g62
(dp103
sg71
g67
sg64
(lp104
g57
(g78
g59
NtRp105
(dp106
g62
(dp107
g82
g83
ssg71
g101
sg64
(lp108
S'application'
p109
asbag57
(g78
g59
NtRp110
(dp111
g62
(dp112
g89
g90
ssg71
g101
sg64
(lp113
S':'
asbag57
(g78
g59
NtRp114
(dp115
g62
(dp116
sg71
g101
sg64
(lp117
g57
(g58
g59
NtRp118
(dp119
g62
(dp120
g70
I5
ssg71
g114
sg64
(lp121
S'pesquisa'
p122
asbasbasbag57
(g73
g59
NtRp123
(dp124
g62
(dp125
sg71
g67
sg64
(lp126
g57
(g78
g59
NtRp127
(dp128
g62
(dp129
g82
g83
ssg71
g123
sg64
(lp130
g42
asbag57
(g78
g59
NtRp131
(dp132
g62
(dp133
g89
g90
ssg71
g123
sg64
(lp134
S':'
asbag57
(g78
g59
NtRp135
(dp136
g62
(dp137
sg71
g123
sg64
(lp138
g57
(g58
g59
NtRp139
(dp140
g62
(dp141
g70
I5
ssg71
g135
sg64
(lp142
g57
(g66
g59
NtRp143
(dp144
g62
(dp145
g70
I4
ssg71
Nsg64
(lp146
sbasbasbasbag57
(g73
g59
NtRp147
(dp148
g62
(dp149
sg71
g67
sg64
(lp150
g57
(g78
g59
NtRp151
(dp152
g62
(dp153
g82
g83
ssg71
g147
sg64
(lp154
S'body'
p155
asbag57
(g78
g59
NtRp156
(dp157
g62
(dp158
g89
g90
ssg71
g147
sg64
(lp159
S':'
asbag57
(g78
g59
NtRp160
(dp161
g62
(dp162
sg71
g147
sg64
(lp163
g57
(g58
g59
NtRp164
(dp165
g62
(dp166
g70
I5
ssg71
g160
sg64
(lp167
S'<cStringIO.StringO object at 0x915bd60>'
p168
asbasbasbag57
(g73
g59
NtRp169
(dp170
g62
(dp171
sg71
g67
sg64
(lp172
g57
(g78
g59
NtRp173
(dp174
g62
(dp175
g82
g83
ssg71
g169
sg64
(lp176
S'client'
p177
asbag57
(g78
g59
NtRp178
(dp179
g62
(dp180
g89
g90
ssg71
g169
sg64
(lp181
S':'
asbag57
(g78
g59
NtRp182
(dp183
g62
(dp184
sg71
g169
sg64
(lp185
g57
(g58
g59
NtRp186
(dp187
g62
(dp188
g70
I5
ssg71
g182
sg64
(lp189
S'127.0.0.1'
p190
asbasbasbag57
(g73
g59
NtRp191
(dp192
g62
(dp193
sg71
g67
sg64
(lp194
g57
(g78
g59
NtRp195
(dp196
g62
(dp197
g82
g83
ssg71
g191
sg64
(lp198
S'controller'
p199
asbag57
(g78
g59
NtRp200
(dp201
g62
(dp202
g89
g90
ssg71
g191
sg64
(lp203
S':'
asbag57
(g78
g59
NtRp204
(dp205
g62
(dp206
sg71
g191
sg64
(lp207
g57
(g58
g59
NtRp208
(dp209
g62
(dp210
g70
I5
ssg71
g204
sg64
(lp211
S'default'
p212
asbasbasbag57
(g73
g59
NtRp213
(dp214
g62
(dp215
sg71
g67
sg64
(lp216
g57
(g78
g59
NtRp217
(dp218
g62
(dp219
g82
g83
ssg71
g213
sg64
(lp220
S'cookies'
p221
asbag57
(g78
g59
NtRp222
(dp223
g62
(dp224
g89
g90
ssg71
g213
sg64
(lp225
S':'
asbag57
(g78
g59
NtRp226
(dp227
g62
(dp228
sg71
g213
sg64
(lp229
g57
(g58
g59
NtRp230
(dp231
g62
(dp232
g70
I5
ssg71
g226
sg64
(lp233
g57
(g66
g59
NtRp234
(dp235
g62
(dp236
g70
I4
ssg71
Nsg64
(lp237
g57
(g73
g59
NtRp238
(dp239
g62
(dp240
sg71
g234
sg64
(lp241
g57
(g78
g59
NtRp242
(dp243
g62
(dp244
g82
g83
ssg71
g238
sg64
(lp245
S'session_id_admin'
p246
asbag57
(g78
g59
NtRp247
(dp248
g62
(dp249
g89
g90
ssg71
g238
sg64
(lp250
S':'
asbag57
(g78
g59
NtRp251
(dp252
g62
(dp253
sg71
g238
sg64
(lp254
g57
(g58
g59
NtRp255
(dp256
g62
(dp257
g70
I4
ssg71
g251
sg64
(lp258
g57
(g66
g59
NtRp259
(dp260
g62
(dp261
g70
I3
ssg71
Nsg64
(lp262
g57
(g73
g59
NtRp263
(dp264
g62
(dp265
sg71
g259
sg64
(lp266
g57
(g78
g59
NtRp267
(dp268
g62
(dp269
g82
g83
ssg71
g263
sg64
(lp270
S'comment'
p271
asbag57
(g78
g59
NtRp272
(dp273
g62
(dp274
g89
g90
ssg71
g263
sg64
(lp275
S':'
asbag57
(g78
g59
NtRp276
(dp277
g62
(dp278
sg71
g263
sg64
(lp279
g57
(g58
g59
NtRp280
(dp281
g62
(dp282
g70
I3
ssg71
g276
sg64
(lp283
S''
asbasbasbag57
(g73
g59
NtRp284
(dp285
g62
(dp286
sg71
g259
sg64
(lp287
g57
(g78
g59
NtRp288
(dp289
g62
(dp290
g82
g83
ssg71
g284
sg64
(lp291
S'domain'
p292
asbag57
(g78
g59
NtRp293
(dp294
g62
(dp295
g89
g90
ssg71
g284
sg64
(lp296
S':'
asbag57
(g78
g59
NtRp297
(dp298
g62
(dp299
sg71
g284
sg64
(lp300
g57
(g58
g59
NtRp301
(dp302
g62
(dp303
g70
I3
ssg71
g297
sg64
(lp304
S''
asbasbasbag57
(g73
g59
NtRp305
(dp306
g62
(dp307
sg71
g259
sg64
(lp308
g57
(g78
g59
NtRp309
(dp310
g62
(dp311
g82
g83
ssg71
g305
sg64
(lp312
S'expires'
p313
asbag57
(g78
g59
NtRp314
(dp315
g62
(dp316
g89
g90
ssg71
g305
sg64
(lp317
S':'
asbag57
(g78
g59
NtRp318
(dp319
g62
(dp320
sg71
g305
sg64
(lp321
g57
(g58
g59
NtRp322
(dp323
g62
(dp324
g70
I3
ssg71
g318
sg64
(lp325
S''
asbasbasbag57
(g73
g59
NtRp326
(dp327
g62
(dp328
sg71
g259
sg64
(lp329
g57
(g78
g59
NtRp330
(dp331
g62
(dp332
g82
g83
ssg71
g326
sg64
(lp333
S'httponly'
p334
asbag57
(g78
g59
NtRp335
(dp336
g62
(dp337
g89
g90
ssg71
g326
sg64
(lp338
S':'
asbag57
(g78
g59
NtRp339
(dp340
g62
(dp341
sg71
g326
sg64
(lp342
g57
(g58
g59
NtRp343
(dp344
g62
(dp345
g70
I3
ssg71
g339
sg64
(lp346
S''
asbasbasbag57
(g73
g59
NtRp347
(dp348
g62
(dp349
sg71
g259
sg64
(lp350
g57
(g78
g59
NtRp351
(dp352
g62
(dp353
g82
g83
ssg71
g347
sg64
(lp354
S'max-age'
p355
asbag57
(g78
g59
NtRp356
(dp357
g62
(dp358
g89
g90
ssg71
g347
sg64
(lp359
S':'
asbag57
(g78
g59
NtRp360
(dp361
g62
(dp362
sg71
g347
sg64
(lp363
g57
(g58
g59
NtRp364
(dp365
g62
(dp366
g70
I3
ssg71
g360
sg64
(lp367
S''
asbasbasbag57
(g73
g59
NtRp368
(dp369
g62
(dp370
sg71
g259
sg64
(lp371
g57
(g78
g59
NtRp372
(dp373
g62
(dp374
g82
g83
ssg71
g368
sg64
(lp375
S'path'
p376
asbag57
(g78
g59
NtRp377
(dp378
g62
(dp379
g89
g90
ssg71
g368
sg64
(lp380
S':'
asbag57
(g78
g59
NtRp381
(dp382
g62
(dp383
sg71
g368
sg64
(lp384
g57
(g58
g59
NtRp385
(dp386
g62
(dp387
g70
I3
ssg71
g381
sg64
(lp388
S''
asbasbasbag57
(g73
g59
NtRp389
(dp390
g62
(dp391
sg71
g259
sg64
(lp392
g57
(g78
g59
NtRp393
(dp394
g62
(dp395
g82
g83
ssg71
g389
sg64
(lp396
S'secure'
p397
asbag57
(g78
g59
NtRp398
(dp399
g62
(dp400
g89
g90
ssg71
g389
sg64
(lp401
S':'
asbag57
(g78
g59
NtRp402
(dp403
g62
(dp404
sg71
g389
sg64
(lp405
g57
(g58
g59
NtRp406
(dp407
g62
(dp408
g70
I3
ssg71
g402
sg64
(lp409
S''
asbasbasbag57
(g73
g59
NtRp410
(dp411
g62
(dp412
sg71
g259
sg64
(lp413
g57
(g78
g59
NtRp414
(dp415
g62
(dp416
g82
g83
ssg71
g410
sg64
(lp417
S'version'
p418
asbag57
(g78
g59
NtRp419
(dp420
g62
(dp421
g89
g90
ssg71
g410
sg64
(lp422
S':'
asbag57
(g78
g59
NtRp423
(dp424
g62
(dp425
sg71
g410
sg64
(lp426
g57
(g58
g59
NtRp427
(dp428
g62
(dp429
g70
I3
ssg71
g423
sg64
(lp430
S''
asbasbasbasbasbasbasbag57
(g73
g59
NtRp431
(dp432
g62
(dp433
sg71
g234
sg64
(lp434
g57
(g78
g59
NtRp435
(dp436
g62
(dp437
g82
g83
ssg71
g431
sg64
(lp438
S'session_id_init'
p439
asbag57
(g78
g59
NtRp440
(dp441
g62
(dp442
g89
g90
ssg71
g431
sg64
(lp443
S':'
asbag57
(g78
g59
NtRp444
(dp445
g62
(dp446
sg71
g431
sg64
(lp447
g57
(g58
g59
NtRp448
(dp449
g62
(dp450
g70
I4
ssg71
g444
sg64
(lp451
g57
(g66
g59
NtRp452
(dp453
g62
(dp454
g70
I3
ssg71
Nsg64
(lp455
g57
(g73
g59
NtRp456
(dp457
g62
(dp458
sg71
g452
sg64
(lp459
g57
(g78
g59
NtRp460
(dp461
g62
(dp462
g82
g83
ssg71
g456
sg64
(lp463
g271
asbag57
(g78
g59
NtRp464
(dp465
g62
(dp466
g89
g90
ssg71
g456
sg64
(lp467
S':'
asbag57
(g78
g59
NtRp468
(dp469
g62
(dp470
sg71
g456
sg64
(lp471
g57
(g58
g59
NtRp472
(dp473
g62
(dp474
g70
I3
ssg71
g468
sg64
(lp475
S''
asbasbasbag57
(g73
g59
NtRp476
(dp477
g62
(dp478
sg71
g452
sg64
(lp479
g57
(g78
g59
NtRp480
(dp481
g62
(dp482
g82
g83
ssg71
g476
sg64
(lp483
g292
asbag57
(g78
g59
NtRp484
(dp485
g62
(dp486
g89
g90
ssg71
g476
sg64
(lp487
S':'
asbag57
(g78
g59
NtRp488
(dp489
g62
(dp490
sg71
g476
sg64
(lp491
g57
(g58
g59
NtRp492
(dp493
g62
(dp494
g70
I3
ssg71
g488
sg64
(lp495
S''
asbasbasbag57
(g73
g59
NtRp496
(dp497
g62
(dp498
sg71
g452
sg64
(lp499
g57
(g78
g59
NtRp500
(dp501
g62
(dp502
g82
g83
ssg71
g496
sg64
(lp503
g313
asbag57
(g78
g59
NtRp504
(dp505
g62
(dp506
g89
g90
ssg71
g496
sg64
(lp507
S':'
asbag57
(g78
g59
NtRp508
(dp509
g62
(dp510
sg71
g496
sg64
(lp511
g57
(g58
g59
NtRp512
(dp513
g62
(dp514
g70
I3
ssg71
g508
sg64
(lp515
S''
asbasbasbag57
(g73
g59
NtRp516
(dp517
g62
(dp518
sg71
g452
sg64
(lp519
g57
(g78
g59
NtRp520
(dp521
g62
(dp522
g82
g83
ssg71
g516
sg64
(lp523
g334
asbag57
(g78
g59
NtRp524
(dp525
g62
(dp526
g89
g90
ssg71
g516
sg64
(lp527
S':'
asbag57
(g78
g59
NtRp528
(dp529
g62
(dp530
sg71
g516
sg64
(lp531
g57
(g58
g59
NtRp532
(dp533
g62
(dp534
g70
I3
ssg71
g528
sg64
(lp535
S''
asbasbasbag57
(g73
g59
NtRp536
(dp537
g62
(dp538
sg71
g452
sg64
(lp539
g57
(g78
g59
NtRp540
(dp541
g62
(dp542
g82
g83
ssg71
g536
sg64
(lp543
g355
asbag57
(g78
g59
NtRp544
(dp545
g62
(dp546
g89
g90
ssg71
g536
sg64
(lp547
S':'
asbag57
(g78
g59
NtRp548
(dp549
g62
(dp550
sg71
g536
sg64
(lp551
g57
(g58
g59
NtRp552
(dp553
g62
(dp554
g70
I3
ssg71
g548
sg64
(lp555
S''
asbasbasbag57
(g73
g59
NtRp556
(dp557
g62
(dp558
sg71
g452
sg64
(lp559
g57
(g78
g59
NtRp560
(dp561
g62
(dp562
g82
g83
ssg71
g556
sg64
(lp563
g376
asbag57
(g78
g59
NtRp564
(dp565
g62
(dp566
g89
g90
ssg71
g556
sg64
(lp567
S':'
asbag57
(g78
g59
NtRp568
(dp569
g62
(dp570
sg71
g556
sg64
(lp571
g57
(g58
g59
NtRp572
(dp573
g62
(dp574
g70
I3
ssg71
g568
sg64
(lp575
S''
asbasbasbag57
(g73
g59
NtRp576
(dp577
g62
(dp578
sg71
g452
sg64
(lp579
g57
(g78
g59
NtRp580
(dp581
g62
(dp582
g82
g83
ssg71
g576
sg64
(lp583
g397
asbag57
(g78
g59
NtRp584
(dp585
g62
(dp586
g89
g90
ssg71
g576
sg64
(lp587
S':'
asbag57
(g78
g59
NtRp588
(dp589
g62
(dp590
sg71
g576
sg64
(lp591
g57
(g58
g59
NtRp592
(dp593
g62
(dp594
g70
I3
ssg71
g588
sg64
(lp595
S''
asbasbasbag57
(g73
g59
NtRp596
(dp597
g62
(dp598
sg71
g452
sg64
(lp599
g57
(g78
g59
NtRp600
(dp601
g62
(dp602
g82
g83
ssg71
g596
sg64
(lp603
g418
asbag57
(g78
g59
NtRp604
(dp605
g62
(dp606
g89
g90
ssg71
g596
sg64
(lp607
S':'
asbag57
(g78
g59
NtRp608
(dp609
g62
(dp610
sg71
g596
sg64
(lp611
g57
(g58
g59
NtRp612
(dp613
g62
(dp614
g70
I3
ssg71
g608
sg64
(lp615
S''
asbasbasbasbasbasbasbag57
(g73
g59
NtRp616
(dp617
g62
(dp618
sg71
g234
sg64
(lp619
g57
(g78
g59
NtRp620
(dp621
g62
(dp622
g82
g83
ssg71
g616
sg64
(lp623
S'session_id_pesquisa'
p624
asbag57
(g78
g59
NtRp625
(dp626
g62
(dp627
g89
g90
ssg71
g616
sg64
(lp628
S':'
asbag57
(g78
g59
NtRp629
(dp630
g62
(dp631
sg71
g616
sg64
(lp632
g57
(g58
g59
NtRp633
(dp634
g62
(dp635
g70
I4
ssg71
g629
sg64
(lp636
g57
(g66
g59
NtRp637
(dp638
g62
(dp639
g70
I3
ssg71
Nsg64
(lp640
g57
(g73
g59
NtRp641
(dp642
g62
(dp643
sg71
g637
sg64
(lp644
g57
(g78
g59
NtRp645
(dp646
g62
(dp647
g82
g83
ssg71
g641
sg64
(lp648
g271
asbag57
(g78
g59
NtRp649
(dp650
g62
(dp651
g89
g90
ssg71
g641
sg64
(lp652
S':'
asbag57
(g78
g59
NtRp653
(dp654
g62
(dp655
sg71
g641
sg64
(lp656
g57
(g58
g59
NtRp657
(dp658
g62
(dp659
g70
I3
ssg71
g653
sg64
(lp660
S''
asbasbasbag57
(g73
g59
NtRp661
(dp662
g62
(dp663
sg71
g637
sg64
(lp664
g57
(g78
g59
NtRp665
(dp666
g62
(dp667
g82
g83
ssg71
g661
sg64
(lp668
g292
asbag57
(g78
g59
NtRp669
(dp670
g62
(dp671
g89
g90
ssg71
g661
sg64
(lp672
S':'
asbag57
(g78
g59
NtRp673
(dp674
g62
(dp675
sg71
g661
sg64
(lp676
g57
(g58
g59
NtRp677
(dp678
g62
(dp679
g70
I3
ssg71
g673
sg64
(lp680
S''
asbasbasbag57
(g73
g59
NtRp681
(dp682
g62
(dp683
sg71
g637
sg64
(lp684
g57
(g78
g59
NtRp685
(dp686
g62
(dp687
g82
g83
ssg71
g681
sg64
(lp688
g313
asbag57
(g78
g59
NtRp689
(dp690
g62
(dp691
g89
g90
ssg71
g681
sg64
(lp692
S':'
asbag57
(g78
g59
NtRp693
(dp694
g62
(dp695
sg71
g681
sg64
(lp696
g57
(g58
g59
NtRp697
(dp698
g62
(dp699
g70
I3
ssg71
g693
sg64
(lp700
S''
asbasbasbag57
(g73
g59
NtRp701
(dp702
g62
(dp703
sg71
g637
sg64
(lp704
g57
(g78
g59
NtRp705
(dp706
g62
(dp707
g82
g83
ssg71
g701
sg64
(lp708
g334
asbag57
(g78
g59
NtRp709
(dp710
g62
(dp711
g89
g90
ssg71
g701
sg64
(lp712
S':'
asbag57
(g78
g59
NtRp713
(dp714
g62
(dp715
sg71
g701
sg64
(lp716
g57
(g58
g59
NtRp717
(dp718
g62
(dp719
g70
I3
ssg71
g713
sg64
(lp720
S''
asbasbasbag57
(g73
g59
NtRp721
(dp722
g62
(dp723
sg71
g637
sg64
(lp724
g57
(g78
g59
NtRp725
(dp726
g62
(dp727
g82
g83
ssg71
g721
sg64
(lp728
g355
asbag57
(g78
g59
NtRp729
(dp730
g62
(dp731
g89
g90
ssg71
g721
sg64
(lp732
S':'
asbag57
(g78
g59
NtRp733
(dp734
g62
(dp735
sg71
g721
sg64
(lp736
g57
(g58
g59
NtRp737
(dp738
g62
(dp739
g70
I3
ssg71
g733
sg64
(lp740
S''
asbasbasbag57
(g73
g59
NtRp741
(dp742
g62
(dp743
sg71
g637
sg64
(lp744
g57
(g78
g59
NtRp745
(dp746
g62
(dp747
g82
g83
ssg71
g741
sg64
(lp748
g376
asbag57
(g78
g59
NtRp749
(dp750
g62
(dp751
g89
g90
ssg71
g741
sg64
(lp752
S':'
asbag57
(g78
g59
NtRp753
(dp754
g62
(dp755
sg71
g741
sg64
(lp756
g57
(g58
g59
NtRp757
(dp758
g62
(dp759
g70
I3
ssg71
g753
sg64
(lp760
S''
asbasbasbag57
(g73
g59
NtRp761
(dp762
g62
(dp763
sg71
g637
sg64
(lp764
g57
(g78
g59
NtRp765
(dp766
g62
(dp767
g82
g83
ssg71
g761
sg64
(lp768
g397
asbag57
(g78
g59
NtRp769
(dp770
g62
(dp771
g89
g90
ssg71
g761
sg64
(lp772
S':'
asbag57
(g78
g59
NtRp773
(dp774
g62
(dp775
sg71
g761
sg64
(lp776
g57
(g58
g59
NtRp777
(dp778
g62
(dp779
g70
I3
ssg71
g773
sg64
(lp780
S''
asbasbasbag57
(g73
g59
NtRp781
(dp782
g62
(dp783
sg71
g637
sg64
(lp784
g57
(g78
g59
NtRp785
(dp786
g62
(dp787
g82
g83
ssg71
g781
sg64
(lp788
g418
asbag57
(g78
g59
NtRp789
(dp790
g62
(dp791
g89
g90
ssg71
g781
sg64
(lp792
S':'
asbag57
(g78
g59
NtRp793
(dp794
g62
(dp795
sg71
g781
sg64
(lp796
g57
(g58
g59
NtRp797
(dp798
g62
(dp799
g70
I3
ssg71
g793
sg64
(lp800
S''
asbasbasbasbasbasbasbasbasbasbasbag57
(g73
g59
NtRp801
(dp802
g62
(dp803
sg71
g67
sg64
(lp804
g57
(g78
g59
NtRp805
(dp806
g62
(dp807
g82
g83
ssg71
g801
sg64
(lp808
S'env'
p809
asbag57
(g78
g59
NtRp810
(dp811
g62
(dp812
g89
g90
ssg71
g801
sg64
(lp813
S':'
asbag57
(g78
g59
NtRp814
(dp815
g62
(dp816
sg71
g801
sg64
(lp817
g57
(g58
g59
NtRp818
(dp819
g62
(dp820
g70
I5
ssg71
g814
sg64
(lp821
g57
(g66
g59
NtRp822
(dp823
g62
(dp824
g70
I4
ssg71
Nsg64
(lp825
g57
(g73
g59
NtRp826
(dp827
g62
(dp828
sg71
g822
sg64
(lp829
g57
(g78
g59
NtRp830
(dp831
g62
(dp832
g82
g83
ssg71
g826
sg64
(lp833
S'app_folders'
p834
asbag57
(g78
g59
NtRp835
(dp836
g62
(dp837
g89
g90
ssg71
g826
sg64
(lp838
S':'
asbag57
(g78
g59
NtRp839
(dp840
g62
(dp841
sg71
g826
sg64
(lp842
g57
(g58
g59
NtRp843
(dp844
g62
(dp845
g70
I4
ssg71
g839
sg64
(lp846
S"set(['/home/diego/web2py/applications/pesquisa/', '/home/diego/web2py/applications/admin/', '/home/diego/web2py/applications/init/'])"
p847
asbasbasbag57
(g73
g59
NtRp848
(dp849
g62
(dp850
sg71
g822
sg64
(lp851
g57
(g78
g59
NtRp852
(dp853
g62
(dp854
g82
g83
ssg71
g848
sg64
(lp855
S'applications_parent'
p856
asbag57
(g78
g59
NtRp857
(dp858
g62
(dp859
g89
g90
ssg71
g848
sg64
(lp860
S':'
asbag57
(g78
g59
NtRp861
(dp862
g62
(dp863
sg71
g848
sg64
(lp864
g57
(g58
g59
NtRp865
(dp866
g62
(dp867
g70
I4
ssg71
g861
sg64
(lp868
S'/home/diego/web2py'
p869
asbasbasbag57
(g73
g59
NtRp870
(dp871
g62
(dp872
sg71
g822
sg64
(lp873
g57
(g78
g59
NtRp874
(dp875
g62
(dp876
g82
g83
ssg71
g870
sg64
(lp877
S'cmd_args'
p878
asbag57
(g78
g59
NtRp879
(dp880
g62
(dp881
g89
g90
ssg71
g870
sg64
(lp882
S':'
asbag57
(g78
g59
NtRp883
(dp884
g62
(dp885
sg71
g870
sg64
(lp886
g57
(g58
g59
NtRp887
(dp888
g62
(dp889
g70
I4
ssg71
g883
sg64
(lp890
g57
(g66
g59
NtRp891
(dp892
g62
(dp893
g70
I3
ssg71
Nsg64
(lp894
sbasbasbasbag57
(g73
g59
NtRp895
(dp896
g62
(dp897
sg71
g822
sg64
(lp898
g57
(g78
g59
NtRp899
(dp900
g62
(dp901
g82
g83
ssg71
g895
sg64
(lp902
S'cmd_options'
p903
asbag57
(g78
g59
NtRp904
(dp905
g62
(dp906
g89
g90
ssg71
g895
sg64
(lp907
S':'
asbag57
(g78
g59
NtRp908
(dp909
g62
(dp910
sg71
g895
sg64
(lp911
g57
(g58
g59
NtRp912
(dp913
g62
(dp914
g70
I4
ssg71
g908
sg64
(lp915
S"<Values at 0x8b2ce6c: {'verbose': False, 'ip': '127.0.0.1', 'shutdown_timeout': 5, 'taskbar': False, 'nocron': False, 'pid_filename': 'httpserver.pid', 'maxthreads': None, 'softcron': False, 'server_name': 'diego-instant', 'bpython': False, 'nogui': False, 'port': 8000, 'extcron': False, 'debuglevel': 30, 'test': None, 'folder': '/home/diego/web2py', 'config': '', 'import_models': False, 'winservice': '', 'shell': None, 'run': '', 'log_filename': 'httpserver.log', 'args': [''], 'socket_timeout': 1, 'ssl_ca_certificate': None, 'scheduler': None, 'profiler_filename': None, 'ssl_private_key': '', 'password': '<ask>', 'request_queue_size': 5, 'ssl_certificate': '', 'cronjob': False, 'numthreads': None, 'quiet': False, 'interfaces': None, 'minthreads': None, 'timeout': 10, 'plain': False, 'nobanner': False}>"
p916
asbasbasbag57
(g73
g59
NtRp917
(dp918
g62
(dp919
sg71
g822
sg64
(lp920
g57
(g78
g59
NtRp921
(dp922
g62
(dp923
g82
g83
ssg71
g917
sg64
(lp924
S'db_sessions'
p925
asbag57
(g78
g59
NtRp926
(dp927
g62
(dp928
g89
g90
ssg71
g917
sg64
(lp929
S':'
asbag57
(g78
g59
NtRp930
(dp931
g62
(dp932
sg71
g917
sg64
(lp933
g57
(g58
g59
NtRp934
(dp935
g62
(dp936
g70
I4
ssg71
g930
sg64
(lp937
S'set([])'
p938
asbasbasbag57
(g73
g59
NtRp939
(dp940
g62
(dp941
sg71
g822
sg64
(lp942
g57
(g78
g59
NtRp943
(dp944
g62
(dp945
g82
g83
ssg71
g939
sg64
(lp946
S'debugging'
p947
asbag57
(g78
g59
NtRp948
(dp949
g62
(dp950
g89
g90
ssg71
g939
sg64
(lp951
S':'
asbag57
(g78
g59
NtRp952
(dp953
g62
(dp954
sg71
g939
sg64
(lp955
g57
(g58
g59
NtRp956
(dp957
g62
(dp958
g70
I4
ssg71
g952
sg64
(lp959
g100
asbasbasbag57
(g73
g59
NtRp960
(dp961
g62
(dp962
sg71
g822
sg64
(lp963
g57
(g78
g59
NtRp964
(dp965
g62
(dp966
g82
g83
ssg71
g960
sg64
(lp967
S'gluon_parent'
p968
asbag57
(g78
g59
NtRp969
(dp970
g62
(dp971
g89
g90
ssg71
g960
sg64
(lp972
S':'
asbag57
(g78
g59
NtRp973
(dp974
g62
(dp975
sg71
g960
sg64
(lp976
g57
(g58
g59
NtRp977
(dp978
g62
(dp979
g70
I4
ssg71
g973
sg64
(lp980
S'/home/diego/web2py'
p981
asbasbasbag57
(g73
g59
NtRp982
(dp983
g62
(dp984
sg71
g822
sg64
(lp985
g57
(g78
g59
NtRp986
(dp987
g62
(dp988
g82
g83
ssg71
g982
sg64
(lp989
S'http_accept'
p990
asbag57
(g78
g59
NtRp991
(dp992
g62
(dp993
g89
g90
ssg71
g982
sg64
(lp994
S':'
asbag57
(g78
g59
NtRp995
(dp996
g62
(dp997
sg71
g982
sg64
(lp998
g57
(g58
g59
NtRp999
(dp1000
g62
(dp1001
g70
I4
ssg71
g995
sg64
(lp1002
S'text/html,application/xhtml+xml,application/xml;q=0.9,*/*;q=0.8'
p1003
asbasbasbag57
(g73
g59
NtRp1004
(dp1005
g62
(dp1006
sg71
g822
sg64
(lp1007
g57
(g78
g59
NtRp1008
(dp1009
g62
(dp1010
g82
g83
ssg71
g1004
sg64
(lp1011
S'http_accept_charset'
p1012
asbag57
(g78
g59
NtRp1013
(dp1014
g62
(dp1015
g89
g90
ssg71
g1004
sg64
(lp1016
S':'
asbag57
(g78
g59
NtRp1017
(dp1018
g62
(dp1019
sg71
g1004
sg64
(lp1020
g57
(g58
g59
NtRp1021
(dp1022
g62
(dp1023
g70
I4
ssg71
g1017
sg64
(lp1024
S'ISO-8859-1,utf-8;q=0.7,*;q=0.3'
p1025
asbasbasbag57
(g73
g59
NtRp1026
(dp1027
g62
(dp1028
sg71
g822
sg64
(lp1029
g57
(g78
g59
NtRp1030
(dp1031
g62
(dp1032
g82
g83
ssg71
g1026
sg64
(lp1033
S'http_accept_encoding'
p1034
asbag57
(g78
g59
NtRp1035
(dp1036
g62
(dp1037
g89
g90
ssg71
g1026
sg64
(lp1038
S':'
asbag57
(g78
g59
NtRp1039
(dp1040
g62
(dp1041
sg71
g1026
sg64
(lp1042
g57
(g58
g59
NtRp1043
(dp1044
g62
(dp1045
g70
I4
ssg71
g1039
sg64
(lp1046
S'gzip,deflate,sdch'
p1047
asbasbasbag57
(g73
g59
NtRp1048
(dp1049
g62
(dp1050
sg71
g822
sg64
(lp1051
g57
(g78
g59
NtRp1052
(dp1053
g62
(dp1054
g82
g83
ssg71
g1048
sg64
(lp1055
S'http_accept_language'
p1056
asbag57
(g78
g59
NtRp1057
(dp1058
g62
(dp1059
g89
g90
ssg71
g1048
sg64
(lp1060
S':'
asbag57
(g78
g59
NtRp1061
(dp1062
g62
(dp1063
sg71
g1048
sg64
(lp1064
g57
(g58
g59
NtRp1065
(dp1066
g62
(dp1067
g70
I4
ssg71
g1061
sg64
(lp1068
S'pt-BR,pt;q=0.8,en-US;q=0.6,en;q=0.4'
p1069
asbasbasbag57
(g73
g59
NtRp1070
(dp1071
g62
(dp1072
sg71
g822
sg64
(lp1073
g57
(g78
g59
NtRp1074
(dp1075
g62
(dp1076
g82
g83
ssg71
g1070
sg64
(lp1077
S'http_cache_control'
p1078
asbag57
(g78
g59
NtRp1079
(dp1080
g62
(dp1081
g89
g90
ssg71
g1070
sg64
(lp1082
S':'
asbag57
(g78
g59
NtRp1083
(dp1084
g62
(dp1085
sg71
g1070
sg64
(lp1086
g57
(g58
g59
NtRp1087
(dp1088
g62
(dp1089
g70
I4
ssg71
g1083
sg64
(lp1090
S'max-age=0'
p1091
asbasbasbag57
(g73
g59
NtRp1092
(dp1093
g62
(dp1094
sg71
g822
sg64
(lp1095
g57
(g78
g59
NtRp1096
(dp1097
g62
(dp1098
g82
g83
ssg71
g1092
sg64
(lp1099
S'http_connection'
p1100
asbag57
(g78
g59
NtRp1101
(dp1102
g62
(dp1103
g89
g90
ssg71
g1092
sg64
(lp1104
S':'
asbag57
(g78
g59
NtRp1105
(dp1106
g62
(dp1107
sg71
g1092
sg64
(lp1108
g57
(g58
g59
NtRp1109
(dp1110
g62
(dp1111
g70
I4
ssg71
g1105
sg64
(lp1112
S'keep-alive'
p1113
asbasbasbag57
(g73
g59
NtRp1114
(dp1115
g62
(dp1116
sg71
g822
sg64
(lp1117
g57
(g78
g59
NtRp1118
(dp1119
g62
(dp1120
g82
g83
ssg71
g1114
sg64
(lp1121
S'http_cookie'
p1122
asbag57
(g78
g59
NtRp1123
(dp1124
g62
(dp1125
g89
g90
ssg71
g1114
sg64
(lp1126
S':'
asbag57
(g78
g59
NtRp1127
(dp1128
g62
(dp1129
sg71
g1114
sg64
(lp1130
g57
(g58
g59
NtRp1131
(dp1132
g62
(dp1133
g70
I4
ssg71
g1127
sg64
(lp1134
S'session_id_init=127.0.0.1-894a2d18-cd61-4b00-b8ae-051407575c77; session_id_admin=127.0.0.1-1ddd78c7-ce7f-4b4e-a400-8fe265171040; session_id_pesquisa=127.0.0.1-3573e6eb-3a18-4b45-bdeb-71a2b19e57a1'
p1135
asbasbasbag57
(g73
g59
NtRp1136
(dp1137
g62
(dp1138
sg71
g822
sg64
(lp1139
g57
(g78
g59
NtRp1140
(dp1141
g62
(dp1142
g82
g83
ssg71
g1136
sg64
(lp1143
S'http_host'
p1144
asbag57
(g78
g59
NtRp1145
(dp1146
g62
(dp1147
g89
g90
ssg71
g1136
sg64
(lp1148
S':'
asbag57
(g78
g59
NtRp1149
(dp1150
g62
(dp1151
sg71
g1136
sg64
(lp1152
g57
(g58
g59
NtRp1153
(dp1154
g62
(dp1155
g70
I4
ssg71
g1149
sg64
(lp1156
S'127.0.0.1:8000'
p1157
asbasbasbag57
(g73
g59
NtRp1158
(dp1159
g62
(dp1160
sg71
g822
sg64
(lp1161
g57
(g78
g59
NtRp1162
(dp1163
g62
(dp1164
g82
g83
ssg71
g1158
sg64
(lp1165
S'http_referer'
p1166
asbag57
(g78
g59
NtRp1167
(dp1168
g62
(dp1169
g89
g90
ssg71
g1158
sg64
(lp1170
S':'
asbag57
(g78
g59
NtRp1171
(dp1172
g62
(dp1173
sg71
g1158
sg64
(lp1174
g57
(g58
g59
NtRp1175
(dp1176
g62
(dp1177
g70
I4
ssg71
g1171
sg64
(lp1178
S'http://127.0.0.1:8000/pesquisa/default/data_crud/create/campos/?_next=/pesquisa/default/'
p1179
asbasbasbag57
(g73
g59
NtRp1180
(dp1181
g62
(dp1182
sg71
g822
sg64
(lp1183
g57
(g78
g59
NtRp1184
(dp1185
g62
(dp1186
g82
g83
ssg71
g1180
sg64
(lp1187
S'http_user_agent'
p1188
asbag57
(g78
g59
NtRp1189
(dp1190
g62
(dp1191
g89
g90
ssg71
g1180
sg64
(lp1192
S':'
asbag57
(g78
g59
NtRp1193
(dp1194
g62
(dp1195
sg71
g1180
sg64
(lp1196
g57
(g58
g59
NtRp1197
(dp1198
g62
(dp1199
g70
I4
ssg71
g1193
sg64
(lp1200
S'Mozilla/5.0 (X11; Linux i686) AppleWebKit/535.2 (KHTML, like Gecko) Ubuntu/11.10 Chromium/15.0.874.106 Chrome/15.0.874.106 Safari/535.2'
p1201
asbasbasbag57
(g73
g59
NtRp1202
(dp1203
g62
(dp1204
sg71
g822
sg64
(lp1205
g57
(g78
g59
NtRp1206
(dp1207
g62
(dp1208
g82
g83
ssg71
g1202
sg64
(lp1209
S'is_jython'
p1210
asbag57
(g78
g59
NtRp1211
(dp1212
g62
(dp1213
g89
g90
ssg71
g1202
sg64
(lp1214
S':'
asbag57
(g78
g59
NtRp1215
(dp1216
g62
(dp1217
sg71
g1202
sg64
(lp1218
g57
(g58
g59
NtRp1219
(dp1220
g62
(dp1221
g70
I4
ssg71
g1215
sg64
(lp1222
g100
asbasbasbag57
(g73
g59
NtRp1223
(dp1224
g62
(dp1225
sg71
g822
sg64
(lp1226
g57
(g78
g59
NtRp1227
(dp1228
g62
(dp1229
g82
g83
ssg71
g1223
sg64
(lp1230
S'is_pypy'
p1231
asbag57
(g78
g59
NtRp1232
(dp1233
g62
(dp1234
g89
g90
ssg71
g1223
sg64
(lp1235
S':'
asbag57
(g78
g59
NtRp1236
(dp1237
g62
(dp1238
sg71
g1223
sg64
(lp1239
g57
(g58
g59
NtRp1240
(dp1241
g62
(dp1242
g70
I4
ssg71
g1236
sg64
(lp1243
g100
asbasbasbag57
(g73
g59
NtRp1244
(dp1245
g62
(dp1246
sg71
g822
sg64
(lp1247
g57
(g78
g59
NtRp1248
(dp1249
g62
(dp1250
g82
g83
ssg71
g1244
sg64
(lp1251
S'path_info'
p1252
asbag57
(g78
g59
NtRp1253
(dp1254
g62
(dp1255
g89
g90
ssg71
g1244
sg64
(lp1256
S':'
asbag57
(g78
g59
NtRp1257
(dp1258
g62
(dp1259
sg71
g1244
sg64
(lp1260
g57
(g58
g59
NtRp1261
(dp1262
g62
(dp1263
g70
I4
ssg71
g1257
sg64
(lp1264
S'/pesquisa/default/resultado'
p1265
asbasbasbag57
(g73
g59
NtRp1266
(dp1267
g62
(dp1268
sg71
g822
sg64
(lp1269
g57
(g78
g59
NtRp1270
(dp1271
g62
(dp1272
g82
g83
ssg71
g1266
sg64
(lp1273
S'query_string'
p1274
asbag57
(g78
g59
NtRp1275
(dp1276
g62
(dp1277
g89
g90
ssg71
g1266
sg64
(lp1278
S':'
asbag57
(g78
g59
NtRp1279
(dp1280
g62
(dp1281
sg71
g1266
sg64
(lp1282
g57
(g58
g59
NtRp1283
(dp1284
g62
(dp1285
g70
I4
ssg71
g1279
sg64
(lp1286
S''
asbasbasbag57
(g73
g59
NtRp1287
(dp1288
g62
(dp1289
sg71
g822
sg64
(lp1290
g57
(g78
g59
NtRp1291
(dp1292
g62
(dp1293
g82
g83
ssg71
g1287
sg64
(lp1294
S'remote_addr'
p1295
asbag57
(g78
g59
NtRp1296
(dp1297
g62
(dp1298
g89
g90
ssg71
g1287
sg64
(lp1299
S':'
asbag57
(g78
g59
NtRp1300
(dp1301
g62
(dp1302
sg71
g1287
sg64
(lp1303
g57
(g58
g59
NtRp1304
(dp1305
g62
(dp1306
g70
I4
ssg71
g1300
sg64
(lp1307
g190
asbasbasbag57
(g73
g59
NtRp1308
(dp1309
g62
(dp1310
sg71
g822
sg64
(lp1311
g57
(g78
g59
NtRp1312
(dp1313
g62
(dp1314
g82
g83
ssg71
g1308
sg64
(lp1315
S'remote_port'
p1316
asbag57
(g78
g59
NtRp1317
(dp1318
g62
(dp1319
g89
g90
ssg71
g1308
sg64
(lp1320
S':'
asbag57
(g78
g59
NtRp1321
(dp1322
g62
(dp1323
sg71
g1308
sg64
(lp1324
g57
(g58
g59
NtRp1325
(dp1326
g62
(dp1327
g70
I4
ssg71
g1321
sg64
(lp1328
S'35166'
p1329
asbasbasbag57
(g73
g59
NtRp1330
(dp1331
g62
(dp1332
sg71
g822
sg64
(lp1333
g57
(g78
g59
NtRp1334
(dp1335
g62
(dp1336
g82
g83
ssg71
g1330
sg64
(lp1337
S'request_method'
p1338
asbag57
(g78
g59
NtRp1339
(dp1340
g62
(dp1341
g89
g90
ssg71
g1330
sg64
(lp1342
S':'
asbag57
(g78
g59
NtRp1343
(dp1344
g62
(dp1345
sg71
g1330
sg64
(lp1346
g57
(g58
g59
NtRp1347
(dp1348
g62
(dp1349
g70
I4
ssg71
g1343
sg64
(lp1350
S'GET'
p1351
asbasbasbag57
(g73
g59
NtRp1352
(dp1353
g62
(dp1354
sg71
g822
sg64
(lp1355
g57
(g78
g59
NtRp1356
(dp1357
g62
(dp1358
g82
g83
ssg71
g1352
sg64
(lp1359
S'script_name'
p1360
asbag57
(g78
g59
NtRp1361
(dp1362
g62
(dp1363
g89
g90
ssg71
g1352
sg64
(lp1364
S':'
asbag57
(g78
g59
NtRp1365
(dp1366
g62
(dp1367
sg71
g1352
sg64
(lp1368
g57
(g58
g59
NtRp1369
(dp1370
g62
(dp1371
g70
I4
ssg71
g1365
sg64
(lp1372
S''
asbasbasbag57
(g73
g59
NtRp1373
(dp1374
g62
(dp1375
sg71
g822
sg64
(lp1376
g57
(g78
g59
NtRp1377
(dp1378
g62
(dp1379
g82
g83
ssg71
g1373
sg64
(lp1380
S'server_name'
p1381
asbag57
(g78
g59
NtRp1382
(dp1383
g62
(dp1384
g89
g90
ssg71
g1373
sg64
(lp1385
S':'
asbag57
(g78
g59
NtRp1386
(dp1387
g62
(dp1388
sg71
g1373
sg64
(lp1389
g57
(g58
g59
NtRp1390
(dp1391
g62
(dp1392
g70
I4
ssg71
g1386
sg64
(lp1393
S'diego-instant'
p1394
asbasbasbag57
(g73
g59
NtRp1395
(dp1396
g62
(dp1397
sg71
g822
sg64
(lp1398
g57
(g78
g59
NtRp1399
(dp1400
g62
(dp1401
g82
g83
ssg71
g1395
sg64
(lp1402
S'server_port'
p1403
asbag57
(g78
g59
NtRp1404
(dp1405
g62
(dp1406
g89
g90
ssg71
g1395
sg64
(lp1407
S':'
asbag57
(g78
g59
NtRp1408
(dp1409
g62
(dp1410
sg71
g1395
sg64
(lp1411
g57
(g58
g59
NtRp1412
(dp1413
g62
(dp1414
g70
I4
ssg71
g1408
sg64
(lp1415
S'8000'
p1416
asbasbasbag57
(g73
g59
NtRp1417
(dp1418
g62
(dp1419
sg71
g822
sg64
(lp1420
g57
(g78
g59
NtRp1421
(dp1422
g62
(dp1423
g82
g83
ssg71
g1417
sg64
(lp1424
S'server_protocol'
p1425
asbag57
(g78
g59
NtRp1426
(dp1427
g62
(dp1428
g89
g90
ssg71
g1417
sg64
(lp1429
S':'
asbag57
(g78
g59
NtRp1430
(dp1431
g62
(dp1432
sg71
g1417
sg64
(lp1433
g57
(g58
g59
NtRp1434
(dp1435
g62
(dp1436
g70
I4
ssg71
g1430
sg64
(lp1437
S'HTTP/1.1'
p1438
asbasbasbag57
(g73
g59
NtRp1439
(dp1440
g62
(dp1441
sg71
g822
sg64
(lp1442
g57
(g78
g59
NtRp1443
(dp1444
g62
(dp1445
g82
g83
ssg71
g1439
sg64
(lp1446
S'server_software'
p1447
asbag57
(g78
g59
NtRp1448
(dp1449
g62
(dp1450
g89
g90
ssg71
g1439
sg64
(lp1451
S':'
asbag57
(g78
g59
NtRp1452
(dp1453
g62
(dp1454
sg71
g1439
sg64
(lp1455
g57
(g58
g59
NtRp1456
(dp1457
g62
(dp1458
g70
I4
ssg71
g1452
sg64
(lp1459
S'Rocket 1.2.4'
p1460
asbasbasbag57
(g73
g59
NtRp1461
(dp1462
g62
(dp1463
sg71
g822
sg64
(lp1464
g57
(g78
g59
NtRp1465
(dp1466
g62
(dp1467
g82
g83
ssg71
g1461
sg64
(lp1468
S'web2py_crontype'
p1469
asbag57
(g78
g59
NtRp1470
(dp1471
g62
(dp1472
g89
g90
ssg71
g1461
sg64
(lp1473
S':'
asbag57
(g78
g59
NtRp1474
(dp1475
g62
(dp1476
sg71
g1461
sg64
(lp1477
g57
(g58
g59
NtRp1478
(dp1479
g62
(dp1480
g70
I4
ssg71
g1474
sg64
(lp1481
S'hard'
p1482
asbasbasbag57
(g73
g59
NtRp1483
(dp1484
g62
(dp1485
sg71
g822
sg64
(lp1486
g57
(g78
g59
NtRp1487
(dp1488
g62
(dp1489
g82
g83
ssg71
g1483
sg64
(lp1490
S'web2py_path'
p1491
asbag57
(g78
g59
NtRp1492
(dp1493
g62
(dp1494
g89
g90
ssg71
g1483
sg64
(lp1495
S':'
asbag57
(g78
g59
NtRp1496
(dp1497
g62
(dp1498
sg71
g1483
sg64
(lp1499
g57
(g58
g59
NtRp1500
(dp1501
g62
(dp1502
g70
I4
ssg71
g1496
sg64
(lp1503
g869
asbasbasbag57
(g73
g59
NtRp1504
(dp1505
g62
(dp1506
sg71
g822
sg64
(lp1507
g57
(g78
g59
NtRp1508
(dp1509
g62
(dp1510
g82
g83
ssg71
g1504
sg64
(lp1511
S'web2py_version'
p1512
asbag57
(g78
g59
NtRp1513
(dp1514
g62
(dp1515
g89
g90
ssg71
g1504
sg64
(lp1516
S':'
asbag57
(g78
g59
NtRp1517
(dp1518
g62
(dp1519
sg71
g1504
sg64
(lp1520
g57
(g58
g59
NtRp1521
(dp1522
g62
(dp1523
g70
I4
ssg71
g1517
sg64
(lp1524
g57
(g66
g59
NtRp1525
(dp1526
g62
(dp1527
g70
I3
ssg71
Nsg64
(lp1528
g57
(g73
g59
NtRp1529
(dp1530
g62
(dp1531
sg71
g1525
sg64
(lp1532
g57
(g78
g59
NtRp1533
(dp1534
g62
(dp1535
sg71
g1529
sg64
(lp1536
g57
(g58
g59
NtRp1537
(dp1538
g62
(dp1539
g70
I3
ssg71
g1533
sg64
(lp1540
S'1'
asbasbasbag57
(g73
g59
NtRp1541
(dp1542
g62
(dp1543
sg71
g1525
sg64
(lp1544
g57
(g78
g59
NtRp1545
(dp1546
g62
(dp1547
sg71
g1541
sg64
(lp1548
g57
(g58
g59
NtRp1549
(dp1550
g62
(dp1551
g70
I3
ssg71
g1545
sg64
(lp1552
S'99'
p1553
asbasbasbag57
(g73
g59
NtRp1554
(dp1555
g62
(dp1556
sg71
g1525
sg64
(lp1557
g57
(g78
g59
NtRp1558
(dp1559
g62
(dp1560
sg71
g1554
sg64
(lp1561
g57
(g58
g59
NtRp1562
(dp1563
g62
(dp1564
g70
I3
ssg71
g1558
sg64
(lp1565
S'4'
asbasbasbag57
(g73
g59
NtRp1566
(dp1567
g62
(dp1568
sg71
g1525
sg64
(lp1569
g57
(g78
g59
NtRp1570
(dp1571
g62
(dp1572
sg71
g1566
sg64
(lp1573
g57
(g58
g59
NtRp1574
(dp1575
g62
(dp1576
g70
I3
ssg71
g1570
sg64
(lp1577
S'datetime.datetime(2011, 12, 14, 14, 46, 14)'
p1578
asbasbasbag57
(g73
g59
NtRp1579
(dp1580
g62
(dp1581
sg71
g1525
sg64
(lp1582
g57
(g78
g59
NtRp1583
(dp1584
g62
(dp1585
sg71
g1579
sg64
(lp1586
g57
(g58
g59
NtRp1587
(dp1588
g62
(dp1589
g70
I3
ssg71
g1583
sg64
(lp1590
S'stable'
p1591
asbasbasbasbasbasbasbag57
(g73
g59
NtRp1592
(dp1593
g62
(dp1594
sg71
g822
sg64
(lp1595
g57
(g78
g59
NtRp1596
(dp1597
g62
(dp1598
g82
g83
ssg71
g1592
sg64
(lp1599
S'wsgi_errors'
p1600
asbag57
(g78
g59
NtRp1601
(dp1602
g62
(dp1603
g89
g90
ssg71
g1592
sg64
(lp1604
S':'
asbag57
(g78
g59
NtRp1605
(dp1606
g62
(dp1607
sg71
g1592
sg64
(lp1608
g57
(g58
g59
NtRp1609
(dp1610
g62
(dp1611
g70
I4
ssg71
g1605
sg64
(lp1612
S"<open file '<stderr>', mode 'w' at 0xb73f70d0>"
p1613
asbasbasbag57
(g73
g59
NtRp1614
(dp1615
g62
(dp1616
sg71
g822
sg64
(lp1617
g57
(g78
g59
NtRp1618
(dp1619
g62
(dp1620
g82
g83
ssg71
g1614
sg64
(lp1621
S'wsgi_file_wrapper'
p1622
asbag57
(g78
g59
NtRp1623
(dp1624
g62
(dp1625
g89
g90
ssg71
g1614
sg64
(lp1626
S':'
asbag57
(g78
g59
NtRp1627
(dp1628
g62
(dp1629
sg71
g1614
sg64
(lp1630
g57
(g58
g59
NtRp1631
(dp1632
g62
(dp1633
g70
I4
ssg71
g1627
sg64
(lp1634
S'<class wsgiref.util.FileWrapper at 0x8a671ac>'
p1635
asbasbasbag57
(g73
g59
NtRp1636
(dp1637
g62
(dp1638
sg71
g822
sg64
(lp1639
g57
(g78
g59
NtRp1640
(dp1641
g62
(dp1642
g82
g83
ssg71
g1636
sg64
(lp1643
S'wsgi_input'
p1644
asbag57
(g78
g59
NtRp1645
(dp1646
g62
(dp1647
g89
g90
ssg71
g1636
sg64
(lp1648
S':'
asbag57
(g78
g59
NtRp1649
(dp1650
g62
(dp1651
sg71
g1636
sg64
(lp1652
g57
(g58
g59
NtRp1653
(dp1654
g62
(dp1655
g70
I4
ssg71
g1649
sg64
(lp1656
S'<socket._fileobject object at 0x9056e6c>'
p1657
asbasbasbag57
(g73
g59
NtRp1658
(dp1659
g62
(dp1660
sg71
g822
sg64
(lp1661
g57
(g78
g59
NtRp1662
(dp1663
g62
(dp1664
g82
g83
ssg71
g1658
sg64
(lp1665
S'wsgi_multiprocess'
p1666
asbag57
(g78
g59
NtRp1667
(dp1668
g62
(dp1669
g89
g90
ssg71
g1658
sg64
(lp1670
S':'
asbag57
(g78
g59
NtRp1671
(dp1672
g62
(dp1673
sg71
g1658
sg64
(lp1674
g57
(g58
g59
NtRp1675
(dp1676
g62
(dp1677
g70
I4
ssg71
g1671
sg64
(lp1678
g100
asbasbasbag57
(g73
g59
NtRp1679
(dp1680
g62
(dp1681
sg71
g822
sg64
(lp1682
g57
(g78
g59
NtRp1683
(dp1684
g62
(dp1685
g82
g83
ssg71
g1679
sg64
(lp1686
S'wsgi_multithread'
p1687
asbag57
(g78
g59
NtRp1688
(dp1689
g62
(dp1690
g89
g90
ssg71
g1679
sg64
(lp1691
S':'
asbag57
(g78
g59
NtRp1692
(dp1693
g62
(dp1694
sg71
g1679
sg64
(lp1695
g57
(g58
g59
NtRp1696
(dp1697
g62
(dp1698
g70
I4
ssg71
g1692
sg64
(lp1699
S'True'
p1700
asbasbasbag57
(g73
g59
NtRp1701
(dp1702
g62
(dp1703
sg71
g822
sg64
(lp1704
g57
(g78
g59
NtRp1705
(dp1706
g62
(dp1707
g82
g83
ssg71
g1701
sg64
(lp1708
S'wsgi_run_once'
p1709
asbag57
(g78
g59
NtRp1710
(dp1711
g62
(dp1712
g89
g90
ssg71
g1701
sg64
(lp1713
S':'
asbag57
(g78
g59
NtRp1714
(dp1715
g62
(dp1716
sg71
g1701
sg64
(lp1717
g57
(g58
g59
NtRp1718
(dp1719
g62
(dp1720
g70
I4
ssg71
g1714
sg64
(lp1721
g100
asbasbasbag57
(g73
g59
NtRp1722
(dp1723
g62
(dp1724
sg71
g822
sg64
(lp1725
g57
(g78
g59
NtRp1726
(dp1727
g62
(dp1728
g82
g83
ssg71
g1722
sg64
(lp1729
S'wsgi_url_scheme'
p1730
asbag57
(g78
g59
NtRp1731
(dp1732
g62
(dp1733
g89
g90
ssg71
g1722
sg64
(lp1734
S':'
asbag57
(g78
g59
NtRp1735
(dp1736
g62
(dp1737
sg71
g1722
sg64
(lp1738
g57
(g58
g59
NtRp1739
(dp1740
g62
(dp1741
g70
I4
ssg71
g1735
sg64
(lp1742
S'http'
p1743
asbasbasbag57
(g73
g59
NtRp1744
(dp1745
g62
(dp1746
sg71
g822
sg64
(lp1747
g57
(g78
g59
NtRp1748
(dp1749
g62
(dp1750
g82
g83
ssg71
g1744
sg64
(lp1751
S'wsgi_version'
p1752
asbag57
(g78
g59
NtRp1753
(dp1754
g62
(dp1755
g89
g90
ssg71
g1744
sg64
(lp1756
S':'
asbag57
(g78
g59
NtRp1757
(dp1758
g62
(dp1759
sg71
g1744
sg64
(lp1760
g57
(g58
g59
NtRp1761
(dp1762
g62
(dp1763
g70
I4
ssg71
g1757
sg64
(lp1764
g57
(g66
g59
NtRp1765
(dp1766
g62
(dp1767
g70
I3
ssg71
Nsg64
(lp1768
g57
(g73
g59
NtRp1769
(dp1770
g62
(dp1771
sg71
g1765
sg64
(lp1772
g57
(g78
g59
NtRp1773
(dp1774
g62
(dp1775
sg71
g1769
sg64
(lp1776
g57
(g58
g59
NtRp1777
(dp1778
g62
(dp1779
g70
I3
ssg71
g1773
sg64
(lp1780
S'1'
asbasbasbag57
(g73
g59
NtRp1781
(dp1782
g62
(dp1783
sg71
g1765
sg64
(lp1784
g57
(g78
g59
NtRp1785
(dp1786
g62
(dp1787
sg71
g1781
sg64
(lp1788
g57
(g58
g59
NtRp1789
(dp1790
g62
(dp1791
g70
I3
ssg71
g1785
sg64
(lp1792
S'0'
asbasbasbasbasbasbasbasbasbasbasbag57
(g73
g59
NtRp1793
(dp1794
g62
(dp1795
sg71
g67
sg64
(lp1796
g57
(g78
g59
NtRp1797
(dp1798
g62
(dp1799
g82
g83
ssg71
g1793
sg64
(lp1800
S'extension'
p1801
asbag57
(g78
g59
NtRp1802
(dp1803
g62
(dp1804
g89
g90
ssg71
g1793
sg64
(lp1805
S':'
asbag57
(g78
g59
NtRp1806
(dp1807
g62
(dp1808
sg71
g1793
sg64
(lp1809
g57
(g58
g59
NtRp1810
(dp1811
g62
(dp1812
g70
I5
ssg71
g1806
sg64
(lp1813
S'html'
p1814
asbasbasbag57
(g73
g59
NtRp1815
(dp1816
g62
(dp1817
sg71
g67
sg64
(lp1818
g57
(g78
g59
NtRp1819
(dp1820
g62
(dp1821
g82
g83
ssg71
g1815
sg64
(lp1822
S'folder'
p1823
asbag57
(g78
g59
NtRp1824
(dp1825
g62
(dp1826
g89
g90
ssg71
g1815
sg64
(lp1827
S':'
asbag57
(g78
g59
NtRp1828
(dp1829
g62
(dp1830
sg71
g1815
sg64
(lp1831
g57
(g58
g59
NtRp1832
(dp1833
g62
(dp1834
g70
I5
ssg71
g1828
sg64
(lp1835
S'/home/diego/web2py/applications/pesquisa/'
p1836
asbasbasbag57
(g73
g59
NtRp1837
(dp1838
g62
(dp1839
sg71
g67
sg64
(lp1840
g57
(g78
g59
NtRp1841
(dp1842
g62
(dp1843
g82
g83
ssg71
g1837
sg64
(lp1844
S'function'
p1845
asbag57
(g78
g59
NtRp1846
(dp1847
g62
(dp1848
g89
g90
ssg71
g1837
sg64
(lp1849
S':'
asbag57
(g78
g59
NtRp1850
(dp1851
g62
(dp1852
sg71
g1837
sg64
(lp1853
g57
(g58
g59
NtRp1854
(dp1855
g62
(dp1856
g70
I5
ssg71
g1850
sg64
(lp1857
S'resultado'
p1858
asbasbasbag57
(g73
g59
NtRp1859
(dp1860
g62
(dp1861
sg71
g67
sg64
(lp1862
g57
(g78
g59
NtRp1863
(dp1864
g62
(dp1865
g82
g83
ssg71
g1859
sg64
(lp1866
S'get_vars'
p1867
asbag57
(g78
g59
NtRp1868
(dp1869
g62
(dp1870
g89
g90
ssg71
g1859
sg64
(lp1871
S':'
asbag57
(g78
g59
NtRp1872
(dp1873
g62
(dp1874
sg71
g1859
sg64
(lp1875
g57
(g58
g59
NtRp1876
(dp1877
g62
(dp1878
g70
I5
ssg71
g1872
sg64
(lp1879
g57
(g66
g59
NtRp1880
(dp1881
g62
(dp1882
g70
I4
ssg71
Nsg64
(lp1883
sbasbasbasbag57
(g73
g59
NtRp1884
(dp1885
g62
(dp1886
sg71
g67
sg64
(lp1887
g57
(g78
g59
NtRp1888
(dp1889
g62
(dp1890
g82
g83
ssg71
g1884
sg64
(lp1891
S'global_settings'
p1892
asbag57
(g78
g59
NtRp1893
(dp1894
g62
(dp1895
g89
g90
ssg71
g1884
sg64
(lp1896
S':'
asbag57
(g78
g59
NtRp1897
(dp1898
g62
(dp1899
sg71
g1884
sg64
(lp1900
g57
(g58
g59
NtRp1901
(dp1902
g62
(dp1903
g70
I5
ssg71
g1897
sg64
(lp1904
g57
(g66
g59
NtRp1905
(dp1906
g62
(dp1907
g70
I4
ssg71
Nsg64
(lp1908
g57
(g73
g59
NtRp1909
(dp1910
g62
(dp1911
sg71
g1905
sg64
(lp1912
g57
(g78
g59
NtRp1913
(dp1914
g62
(dp1915
g82
g83
ssg71
g1909
sg64
(lp1916
g834
asbag57
(g78
g59
NtRp1917
(dp1918
g62
(dp1919
g89
g90
ssg71
g1909
sg64
(lp1920
S':'
asbag57
(g78
g59
NtRp1921
(dp1922
g62
(dp1923
sg71
g1909
sg64
(lp1924
g57
(g58
g59
NtRp1925
(dp1926
g62
(dp1927
g70
I4
ssg71
g1921
sg64
(lp1928
S"set(['/home/diego/web2py/applications/pesquisa/', '/home/diego/web2py/applications/admin/', '/home/diego/web2py/applications/init/'])"
p1929
asbasbasbag57
(g73
g59
NtRp1930
(dp1931
g62
(dp1932
sg71
g1905
sg64
(lp1933
g57
(g78
g59
NtRp1934
(dp1935
g62
(dp1936
g82
g83
ssg71
g1930
sg64
(lp1937
g856
asbag57
(g78
g59
NtRp1938
(dp1939
g62
(dp1940
g89
g90
ssg71
g1930
sg64
(lp1941
S':'
asbag57
(g78
g59
NtRp1942
(dp1943
g62
(dp1944
sg71
g1930
sg64
(lp1945
g57
(g58
g59
NtRp1946
(dp1947
g62
(dp1948
g70
I4
ssg71
g1942
sg64
(lp1949
g869
asbasbasbag57
(g73
g59
NtRp1950
(dp1951
g62
(dp1952
sg71
g1905
sg64
(lp1953
g57
(g78
g59
NtRp1954
(dp1955
g62
(dp1956
g82
g83
ssg71
g1950
sg64
(lp1957
g878
asbag57
(g78
g59
NtRp1958
(dp1959
g62
(dp1960
g89
g90
ssg71
g1950
sg64
(lp1961
S':'
asbag57
(g78
g59
NtRp1962
(dp1963
g62
(dp1964
sg71
g1950
sg64
(lp1965
g57
(g58
g59
NtRp1966
(dp1967
g62
(dp1968
g70
I4
ssg71
g1962
sg64
(lp1969
g57
(g66
g59
NtRp1970
(dp1971
g62
(dp1972
g70
I3
ssg71
Nsg64
(lp1973
sbasbasbasbag57
(g73
g59
NtRp1974
(dp1975
g62
(dp1976
sg71
g1905
sg64
(lp1977
g57
(g78
g59
NtRp1978
(dp1979
g62
(dp1980
g82
g83
ssg71
g1974
sg64
(lp1981
g903
asbag57
(g78
g59
NtRp1982
(dp1983
g62
(dp1984
g89
g90
ssg71
g1974
sg64
(lp1985
S':'
asbag57
(g78
g59
NtRp1986
(dp1987
g62
(dp1988
sg71
g1974
sg64
(lp1989
g57
(g58
g59
NtRp1990
(dp1991
g62
(dp1992
g70
I4
ssg71
g1986
sg64
(lp1993
S"<Values at 0x8b2ce6c: {'verbose': False, 'ip': '127.0.0.1', 'shutdown_timeout': 5, 'taskbar': False, 'nocron': False, 'pid_filename': 'httpserver.pid', 'maxthreads': None, 'softcron': False, 'server_name': 'diego-instant', 'bpython': False, 'nogui': False, 'port': 8000, 'extcron': False, 'debuglevel': 30, 'test': None, 'folder': '/home/diego/web2py', 'config': '', 'import_models': False, 'winservice': '', 'shell': None, 'run': '', 'log_filename': 'httpserver.log', 'args': [''], 'socket_timeout': 1, 'ssl_ca_certificate': None, 'scheduler': None, 'profiler_filename': None, 'ssl_private_key': '', 'password': '<ask>', 'request_queue_size': 5, 'ssl_certificate': '', 'cronjob': False, 'numthreads': None, 'quiet': False, 'interfaces': None, 'minthreads': None, 'timeout': 10, 'plain': False, 'nobanner': False}>"
p1994
asbasbasbag57
(g73
g59
NtRp1995
(dp1996
g62
(dp1997
sg71
g1905
sg64
(lp1998
g57
(g78
g59
NtRp1999
(dp2000
g62
(dp2001
g82
g83
ssg71
g1995
sg64
(lp2002
g925
asbag57
(g78
g59
NtRp2003
(dp2004
g62
(dp2005
g89
g90
ssg71
g1995
sg64
(lp2006
S':'
asbag57
(g78
g59
NtRp2007
(dp2008
g62
(dp2009
sg71
g1995
sg64
(lp2010
g57
(g58
g59
NtRp2011
(dp2012
g62
(dp2013
g70
I4
ssg71
g2007
sg64
(lp2014
S'set([])'
p2015
asbasbasbag57
(g73
g59
NtRp2016
(dp2017
g62
(dp2018
sg71
g1905
sg64
(lp2019
g57
(g78
g59
NtRp2020
(dp2021
g62
(dp2022
g82
g83
ssg71
g2016
sg64
(lp2023
g947
asbag57
(g78
g59
NtRp2024
(dp2025
g62
(dp2026
g89
g90
ssg71
g2016
sg64
(lp2027
S':'
asbag57
(g78
g59
NtRp2028
(dp2029
g62
(dp2030
sg71
g2016
sg64
(lp2031
g57
(g58
g59
NtRp2032
(dp2033
g62
(dp2034
g70
I4
ssg71
g2028
sg64
(lp2035
g100
asbasbasbag57
(g73
g59
NtRp2036
(dp2037
g62
(dp2038
sg71
g1905
sg64
(lp2039
g57
(g78
g59
NtRp2040
(dp2041
g62
(dp2042
g82
g83
ssg71
g2036
sg64
(lp2043
g968
asbag57
(g78
g59
NtRp2044
(dp2045
g62
(dp2046
g89
g90
ssg71
g2036
sg64
(lp2047
S':'
asbag57
(g78
g59
NtRp2048
(dp2049
g62
(dp2050
sg71
g2036
sg64
(lp2051
g57
(g58
g59
NtRp2052
(dp2053
g62
(dp2054
g70
I4
ssg71
g2048
sg64
(lp2055
g981
asbasbasbag57
(g73
g59
NtRp2056
(dp2057
g62
(dp2058
sg71
g1905
sg64
(lp2059
g57
(g78
g59
NtRp2060
(dp2061
g62
(dp2062
g82
g83
ssg71
g2056
sg64
(lp2063
g1210
asbag57
(g78
g59
NtRp2064
(dp2065
g62
(dp2066
g89
g90
ssg71
g2056
sg64
(lp2067
S':'
asbag57
(g78
g59
NtRp2068
(dp2069
g62
(dp2070
sg71
g2056
sg64
(lp2071
g57
(g58
g59
NtRp2072
(dp2073
g62
(dp2074
g70
I4
ssg71
g2068
sg64
(lp2075
g100
asbasbasbag57
(g73
g59
NtRp2076
(dp2077
g62
(dp2078
sg71
g1905
sg64
(lp2079
g57
(g78
g59
NtRp2080
(dp2081
g62
(dp2082
g82
g83
ssg71
g2076
sg64
(lp2083
g1231
asbag57
(g78
g59
NtRp2084
(dp2085
g62
(dp2086
g89
g90
ssg71
g2076
sg64
(lp2087
S':'
asbag57
(g78
g59
NtRp2088
(dp2089
g62
(dp2090
sg71
g2076
sg64
(lp2091
g57
(g58
g59
NtRp2092
(dp2093
g62
(dp2094
g70
I4
ssg71
g2088
sg64
(lp2095
g100
asbasbasbag57
(g73
g59
NtRp2096
(dp2097
g62
(dp2098
sg71
g1905
sg64
(lp2099
g57
(g78
g59
NtRp2100
(dp2101
g62
(dp2102
g82
g83
ssg71
g2096
sg64
(lp2103
g1469
asbag57
(g78
g59
NtRp2104
(dp2105
g62
(dp2106
g89
g90
ssg71
g2096
sg64
(lp2107
S':'
asbag57
(g78
g59
NtRp2108
(dp2109
g62
(dp2110
sg71
g2096
sg64
(lp2111
g57
(g58
g59
NtRp2112
(dp2113
g62
(dp2114
g70
I4
ssg71
g2108
sg64
(lp2115
g1482
asbasbasbag57
(g73
g59
NtRp2116
(dp2117
g62
(dp2118
sg71
g1905
sg64
(lp2119
g57
(g78
g59
NtRp2120
(dp2121
g62
(dp2122
g82
g83
ssg71
g2116
sg64
(lp2123
g1512
asbag57
(g78
g59
NtRp2124
(dp2125
g62
(dp2126
g89
g90
ssg71
g2116
sg64
(lp2127
S':'
asbag57
(g78
g59
NtRp2128
(dp2129
g62
(dp2130
sg71
g2116
sg64
(lp2131
g57
(g58
g59
NtRp2132
(dp2133
g62
(dp2134
g70
I4
ssg71
g2128
sg64
(lp2135
g57
(g66
g59
NtRp2136
(dp2137
g62
(dp2138
g70
I3
ssg71
Nsg64
(lp2139
g57
(g73
g59
NtRp2140
(dp2141
g62
(dp2142
sg71
g2136
sg64
(lp2143
g57
(g78
g59
NtRp2144
(dp2145
g62
(dp2146
sg71
g2140
sg64
(lp2147
g57
(g58
g59
NtRp2148
(dp2149
g62
(dp2150
g70
I3
ssg71
g2144
sg64
(lp2151
S'1'
asbasbasbag57
(g73
g59
NtRp2152
(dp2153
g62
(dp2154
sg71
g2136
sg64
(lp2155
g57
(g78
g59
NtRp2156
(dp2157
g62
(dp2158
sg71
g2152
sg64
(lp2159
g57
(g58
g59
NtRp2160
(dp2161
g62
(dp2162
g70
I3
ssg71
g2156
sg64
(lp2163
S'99'
p2164
asbasbasbag57
(g73
g59
NtRp2165
(dp2166
g62
(dp2167
sg71
g2136
sg64
(lp2168
g57
(g78
g59
NtRp2169
(dp2170
g62
(dp2171
sg71
g2165
sg64
(lp2172
g57
(g58
g59
NtRp2173
(dp2174
g62
(dp2175
g70
I3
ssg71
g2169
sg64
(lp2176
S'4'
asbasbasbag57
(g73
g59
NtRp2177
(dp2178
g62
(dp2179
sg71
g2136
sg64
(lp2180
g57
(g78
g59
NtRp2181
(dp2182
g62
(dp2183
sg71
g2177
sg64
(lp2184
g57
(g58
g59
NtRp2185
(dp2186
g62
(dp2187
g70
I3
ssg71
g2181
sg64
(lp2188
S'datetime.datetime(2011, 12, 14, 14, 46, 14)'
p2189
asbasbasbag57
(g73
g59
NtRp2190
(dp2191
g62
(dp2192
sg71
g2136
sg64
(lp2193
g57
(g78
g59
NtRp2194
(dp2195
g62
(dp2196
sg71
g2190
sg64
(lp2197
g57
(g58
g59
NtRp2198
(dp2199
g62
(dp2200
g70
I3
ssg71
g2194
sg64
(lp2201
g1591
asbasbasbasbasbasbasbasbasbasbasbag57
(g73
g59
NtRp2202
(dp2203
g62
(dp2204
sg71
g67
sg64
(lp2205
g57
(g78
g59
NtRp2206
(dp2207
g62
(dp2208
g82
g83
ssg71
g2202
sg64
(lp2209
S'is_https'
p2210
asbag57
(g78
g59
NtRp2211
(dp2212
g62
(dp2213
g89
g90
ssg71
g2202
sg64
(lp2214
S':'
asbag57
(g78
g59
NtRp2215
(dp2216
g62
(dp2217
sg71
g2202
sg64
(lp2218
g57
(g58
g59
NtRp2219
(dp2220
g62
(dp2221
g70
I5
ssg71
g2215
sg64
(lp2222
g100
asbasbasbag57
(g73
g59
NtRp2223
(dp2224
g62
(dp2225
sg71
g67
sg64
(lp2226
g57
(g78
g59
NtRp2227
(dp2228
g62
(dp2229
g82
g83
ssg71
g2223
sg64
(lp2230
S'is_local'
p2231
asbag57
(g78
g59
NtRp2232
(dp2233
g62
(dp2234
g89
g90
ssg71
g2223
sg64
(lp2235
S':'
asbag57
(g78
g59
NtRp2236
(dp2237
g62
(dp2238
sg71
g2223
sg64
(lp2239
g57
(g58
g59
NtRp2240
(dp2241
g62
(dp2242
g70
I5
ssg71
g2236
sg64
(lp2243
g1700
asbasbasbag57
(g73
g59
NtRp2244
(dp2245
g62
(dp2246
sg71
g67
sg64
(lp2247
g57
(g78
g59
NtRp2248
(dp2249
g62
(dp2250
g82
g83
ssg71
g2244
sg64
(lp2251
S'is_restful'
p2252
asbag57
(g78
g59
NtRp2253
(dp2254
g62
(dp2255
g89
g90
ssg71
g2244
sg64
(lp2256
S':'
asbag57
(g78
g59
NtRp2257
(dp2258
g62
(dp2259
sg71
g2244
sg64
(lp2260
g57
(g58
g59
NtRp2261
(dp2262
g62
(dp2263
g70
I5
ssg71
g2257
sg64
(lp2264
g100
asbasbasbag57
(g73
g59
NtRp2265
(dp2266
g62
(dp2267
sg71
g67
sg64
(lp2268
g57
(g78
g59
NtRp2269
(dp2270
g62
(dp2271
g82
g83
ssg71
g2265
sg64
(lp2272
S'now'
p2273
asbag57
(g78
g59
NtRp2274
(dp2275
g62
(dp2276
g89
g90
ssg71
g2265
sg64
(lp2277
S':'
asbag57
(g78
g59
NtRp2278
(dp2279
g62
(dp2280
sg71
g2265
sg64
(lp2281
g57
(g58
g59
NtRp2282
(dp2283
g62
(dp2284
g70
I5
ssg71
g2278
sg64
(lp2285
S'datetime.datetime(2012, 1, 18, 10, 6, 44, 267012)'
p2286
asbasbasbag57
(g73
g59
NtRp2287
(dp2288
g62
(dp2289
sg71
g67
sg64
(lp2290
g57
(g78
g59
NtRp2291
(dp2292
g62
(dp2293
g82
g83
ssg71
g2287
sg64
(lp2294
S'post_vars'
p2295
asbag57
(g78
g59
NtRp2296
(dp2297
g62
(dp2298
g89
g90
ssg71
g2287
sg64
(lp2299
S':'
asbag57
(g78
g59
NtRp2300
(dp2301
g62
(dp2302
sg71
g2287
sg64
(lp2303
g57
(g58
g59
NtRp2304
(dp2305
g62
(dp2306
g70
I5
ssg71
g2300
sg64
(lp2307
g57
(g66
g59
NtRp2308
(dp2309
g62
(dp2310
g70
I4
ssg71
Nsg64
(lp2311
sbasbasbasbag57
(g73
g59
NtRp2312
(dp2313
g62
(dp2314
sg71
g67
sg64
(lp2315
g57
(g78
g59
NtRp2316
(dp2317
g62
(dp2318
g82
g83
ssg71
g2312
sg64
(lp2319
S'url'
p2320
asbag57
(g78
g59
NtRp2321
(dp2322
g62
(dp2323
g89
g90
ssg71
g2312
sg64
(lp2324
S':'
asbag57
(g78
g59
NtRp2325
(dp2326
g62
(dp2327
sg71
g2312
sg64
(lp2328
g57
(g58
g59
NtRp2329
(dp2330
g62
(dp2331
g70
I5
ssg71
g2325
sg64
(lp2332
S'/pesquisa/default/resultado'
p2333
asbasbasbag57
(g73
g59
NtRp2334
(dp2335
g62
(dp2336
sg71
g67
sg64
(lp2337
g57
(g78
g59
NtRp2338
(dp2339
g62
(dp2340
g82
g83
ssg71
g2334
sg64
(lp2341
S'utcnow'
p2342
asbag57
(g78
g59
NtRp2343
(dp2344
g62
(dp2345
g89
g90
ssg71
g2334
sg64
(lp2346
S':'
asbag57
(g78
g59
NtRp2347
(dp2348
g62
(dp2349
sg71
g2334
sg64
(lp2350
g57
(g58
g59
NtRp2351
(dp2352
g62
(dp2353
g70
I5
ssg71
g2347
sg64
(lp2354
S'datetime.datetime(2012, 1, 18, 12, 6, 44, 267032)'
p2355
asbasbasbag57
(g73
g59
NtRp2356
(dp2357
g62
(dp2358
sg71
g67
sg64
(lp2359
g57
(g78
g59
NtRp2360
(dp2361
g62
(dp2362
g82
g83
ssg71
g2356
sg64
(lp2363
S'uuid'
p2364
asbag57
(g78
g59
NtRp2365
(dp2366
g62
(dp2367
g89
g90
ssg71
g2356
sg64
(lp2368
S':'
asbag57
(g78
g59
NtRp2369
(dp2370
g62
(dp2371
sg71
g2356
sg64
(lp2372
g57
(g58
g59
NtRp2373
(dp2374
g62
(dp2375
g70
I5
ssg71
g2369
sg64
(lp2376
S'pesquisa/127.0.0.1.2012-01-18.10-06-44.303e425f-b602-4c54-ab66-8bc39f15c613'
p2377
asbasbasbag57
(g73
g59
NtRp2378
(dp2379
g62
(dp2380
sg71
g67
sg64
(lp2381
g57
(g78
g59
NtRp2382
(dp2383
g62
(dp2384
g82
g83
ssg71
g2378
sg64
(lp2385
S'vars'
p2386
asbag57
(g78
g59
NtRp2387
(dp2388
g62
(dp2389
g89
g90
ssg71
g2378
sg64
(lp2390
S':'
asbag57
(g78
g59
NtRp2391
(dp2392
g62
(dp2393
sg71
g2378
sg64
(lp2394
g57
(g58
g59
NtRp2395
(dp2396
g62
(dp2397
g70
I5
ssg71
g2391
sg64
(lp2398
g57
(g66
g59
NtRp2399
(dp2400
g62
(dp2401
g70
I4
ssg71
Nsg64
(lp2402
sbasbasbasbag57
(g73
g59
NtRp2403
(dp2404
g62
(dp2405
sg71
g67
sg64
(lp2406
g57
(g78
g59
NtRp2407
(dp2408
g62
(dp2409
g82
g83
ssg71
g2403
sg64
(lp2410
S'wsgi'
p2411
asbag57
(g78
g59
NtRp2412
(dp2413
g62
(dp2414
g89
g90
ssg71
g2403
sg64
(lp2415
S':'
asbag57
(g78
g59
NtRp2416
(dp2417
g62
(dp2418
sg71
g2403
sg64
(lp2419
g57
(g58
g59
NtRp2420
(dp2421
g62
(dp2422
g70
I5
ssg71
g2416
sg64
(lp2423
g57
(g66
g59
NtRp2424
(dp2425
g62
(dp2426
g70
I4
ssg71
Nsg64
(lp2427
g57
(g73
g59
NtRp2428
(dp2429
g62
(dp2430
sg71
g2424
sg64
(lp2431
g57
(g78
g59
NtRp2432
(dp2433
g62
(dp2434
g82
g83
ssg71
g2428
sg64
(lp2435
S'environ'
p2436
asbag57
(g78
g59
NtRp2437
(dp2438
g62
(dp2439
g89
g90
ssg71
g2428
sg64
(lp2440
S':'
asbag57
(g78
g59
NtRp2441
(dp2442
g62
(dp2443
sg71
g2428
sg64
(lp2444
g57
(g58
g59
NtRp2445
(dp2446
g62
(dp2447
g70
I4
ssg71
g2441
sg64
(lp2448
g57
(g66
g59
NtRp2449
(dp2450
g62
(dp2451
g70
I3
ssg71
Nsg64
(lp2452
g57
(g73
g59
NtRp2453
(dp2454
g62
(dp2455
sg71
g2449
sg64
(lp2456
g57
(g78
g59
NtRp2457
(dp2458
g62
(dp2459
g82
g83
ssg71
g2453
sg64
(lp2460
S'HTTP_ACCEPT'
p2461
asbag57
(g78
g59
NtRp2462
(dp2463
g62
(dp2464
g89
g90
ssg71
g2453
sg64
(lp2465
S':'
asbag57
(g78
g59
NtRp2466
(dp2467
g62
(dp2468
sg71
g2453
sg64
(lp2469
g57
(g58
g59
NtRp2470
(dp2471
g62
(dp2472
g70
I3
ssg71
g2466
sg64
(lp2473
g1003
asbasbasbag57
(g73
g59
NtRp2474
(dp2475
g62
(dp2476
sg71
g2449
sg64
(lp2477
g57
(g78
g59
NtRp2478
(dp2479
g62
(dp2480
g82
g83
ssg71
g2474
sg64
(lp2481
S'HTTP_ACCEPT_CHARSET'
p2482
asbag57
(g78
g59
NtRp2483
(dp2484
g62
(dp2485
g89
g90
ssg71
g2474
sg64
(lp2486
S':'
asbag57
(g78
g59
NtRp2487
(dp2488
g62
(dp2489
sg71
g2474
sg64
(lp2490
g57
(g58
g59
NtRp2491
(dp2492
g62
(dp2493
g70
I3
ssg71
g2487
sg64
(lp2494
g1025
asbasbasbag57
(g73
g59
NtRp2495
(dp2496
g62
(dp2497
sg71
g2449
sg64
(lp2498
g57
(g78
g59
NtRp2499
(dp2500
g62
(dp2501
g82
g83
ssg71
g2495
sg64
(lp2502
S'HTTP_ACCEPT_ENCODING'
p2503
asbag57
(g78
g59
NtRp2504
(dp2505
g62
(dp2506
g89
g90
ssg71
g2495
sg64
(lp2507
S':'
asbag57
(g78
g59
NtRp2508
(dp2509
g62
(dp2510
sg71
g2495
sg64
(lp2511
g57
(g58
g59
NtRp2512
(dp2513
g62
(dp2514
g70
I3
ssg71
g2508
sg64
(lp2515
g1047
asbasbasbag57
(g73
g59
NtRp2516
(dp2517
g62
(dp2518
sg71
g2449
sg64
(lp2519
g57
(g78
g59
NtRp2520
(dp2521
g62
(dp2522
g82
g83
ssg71
g2516
sg64
(lp2523
S'HTTP_ACCEPT_LANGUAGE'
p2524
asbag57
(g78
g59
NtRp2525
(dp2526
g62
(dp2527
g89
g90
ssg71
g2516
sg64
(lp2528
S':'
asbag57
(g78
g59
NtRp2529
(dp2530
g62
(dp2531
sg71
g2516
sg64
(lp2532
g57
(g58
g59
NtRp2533
(dp2534
g62
(dp2535
g70
I3
ssg71
g2529
sg64
(lp2536
g1069
asbasbasbag57
(g73
g59
NtRp2537
(dp2538
g62
(dp2539
sg71
g2449
sg64
(lp2540
g57
(g78
g59
NtRp2541
(dp2542
g62
(dp2543
g82
g83
ssg71
g2537
sg64
(lp2544
S'HTTP_CACHE_CONTROL'
p2545
asbag57
(g78
g59
NtRp2546
(dp2547
g62
(dp2548
g89
g90
ssg71
g2537
sg64
(lp2549
S':'
asbag57
(g78
g59
NtRp2550
(dp2551
g62
(dp2552
sg71
g2537
sg64
(lp2553
g57
(g58
g59
NtRp2554
(dp2555
g62
(dp2556
g70
I3
ssg71
g2550
sg64
(lp2557
g1091
asbasbasbag57
(g73
g59
NtRp2558
(dp2559
g62
(dp2560
sg71
g2449
sg64
(lp2561
g57
(g78
g59
NtRp2562
(dp2563
g62
(dp2564
g82
g83
ssg71
g2558
sg64
(lp2565
S'HTTP_CONNECTION'
p2566
asbag57
(g78
g59
NtRp2567
(dp2568
g62
(dp2569
g89
g90
ssg71
g2558
sg64
(lp2570
S':'
asbag57
(g78
g59
NtRp2571
(dp2572
g62
(dp2573
sg71
g2558
sg64
(lp2574
g57
(g58
g59
NtRp2575
(dp2576
g62
(dp2577
g70
I3
ssg71
g2571
sg64
(lp2578
g1113
asbasbasbag57
(g73
g59
NtRp2579
(dp2580
g62
(dp2581
sg71
g2449
sg64
(lp2582
g57
(g78
g59
NtRp2583
(dp2584
g62
(dp2585
g82
g83
ssg71
g2579
sg64
(lp2586
S'HTTP_COOKIE'
p2587
asbag57
(g78
g59
NtRp2588
(dp2589
g62
(dp2590
g89
g90
ssg71
g2579
sg64
(lp2591
S':'
asbag57
(g78
g59
NtRp2592
(dp2593
g62
(dp2594
sg71
g2579
sg64
(lp2595
g57
(g58
g59
NtRp2596
(dp2597
g62
(dp2598
g70
I3
ssg71
g2592
sg64
(lp2599
g1135
asbasbasbag57
(g73
g59
NtRp2600
(dp2601
g62
(dp2602
sg71
g2449
sg64
(lp2603
g57
(g78
g59
NtRp2604
(dp2605
g62
(dp2606
g82
g83
ssg71
g2600
sg64
(lp2607
S'HTTP_HOST'
p2608
asbag57
(g78
g59
NtRp2609
(dp2610
g62
(dp2611
g89
g90
ssg71
g2600
sg64
(lp2612
S':'
asbag57
(g78
g59
NtRp2613
(dp2614
g62
(dp2615
sg71
g2600
sg64
(lp2616
g57
(g58
g59
NtRp2617
(dp2618
g62
(dp2619
g70
I3
ssg71
g2613
sg64
(lp2620
g1157
asbasbasbag57
(g73
g59
NtRp2621
(dp2622
g62
(dp2623
sg71
g2449
sg64
(lp2624
g57
(g78
g59
NtRp2625
(dp2626
g62
(dp2627
g82
g83
ssg71
g2621
sg64
(lp2628
S'HTTP_REFERER'
p2629
asbag57
(g78
g59
NtRp2630
(dp2631
g62
(dp2632
g89
g90
ssg71
g2621
sg64
(lp2633
S':'
asbag57
(g78
g59
NtRp2634
(dp2635
g62
(dp2636
sg71
g2621
sg64
(lp2637
g57
(g58
g59
NtRp2638
(dp2639
g62
(dp2640
g70
I3
ssg71
g2634
sg64
(lp2641
g1179
asbasbasbag57
(g73
g59
NtRp2642
(dp2643
g62
(dp2644
sg71
g2449
sg64
(lp2645
g57
(g78
g59
NtRp2646
(dp2647
g62
(dp2648
g82
g83
ssg71
g2642
sg64
(lp2649
S'HTTP_USER_AGENT'
p2650
asbag57
(g78
g59
NtRp2651
(dp2652
g62
(dp2653
g89
g90
ssg71
g2642
sg64
(lp2654
S':'
asbag57
(g78
g59
NtRp2655
(dp2656
g62
(dp2657
sg71
g2642
sg64
(lp2658
g57
(g58
g59
NtRp2659
(dp2660
g62
(dp2661
g70
I3
ssg71
g2655
sg64
(lp2662
g1201
asbasbasbag57
(g73
g59
NtRp2663
(dp2664
g62
(dp2665
sg71
g2449
sg64
(lp2666
g57
(g78
g59
NtRp2667
(dp2668
g62
(dp2669
g82
g83
ssg71
g2663
sg64
(lp2670
S'PATH_INFO'
p2671
asbag57
(g78
g59
NtRp2672
(dp2673
g62
(dp2674
g89
g90
ssg71
g2663
sg64
(lp2675
S':'
asbag57
(g78
g59
NtRp2676
(dp2677
g62
(dp2678
sg71
g2663
sg64
(lp2679
g57
(g58
g59
NtRp2680
(dp2681
g62
(dp2682
g70
I3
ssg71
g2676
sg64
(lp2683
g1265
asbasbasbag57
(g73
g59
NtRp2684
(dp2685
g62
(dp2686
sg71
g2449
sg64
(lp2687
g57
(g78
g59
NtRp2688
(dp2689
g62
(dp2690
g82
g83
ssg71
g2684
sg64
(lp2691
S'QUERY_STRING'
p2692
asbag57
(g78
g59
NtRp2693
(dp2694
g62
(dp2695
g89
g90
ssg71
g2684
sg64
(lp2696
S':'
asbag57
(g78
g59
NtRp2697
(dp2698
g62
(dp2699
sg71
g2684
sg64
(lp2700
g57
(g58
g59
NtRp2701
(dp2702
g62
(dp2703
g70
I3
ssg71
g2697
sg64
(lp2704
S''
asbasbasbag57
(g73
g59
NtRp2705
(dp2706
g62
(dp2707
sg71
g2449
sg64
(lp2708
g57
(g78
g59
NtRp2709
(dp2710
g62
(dp2711
g82
g83
ssg71
g2705
sg64
(lp2712
S'REMOTE_ADDR'
p2713
asbag57
(g78
g59
NtRp2714
(dp2715
g62
(dp2716
g89
g90
ssg71
g2705
sg64
(lp2717
S':'
asbag57
(g78
g59
NtRp2718
(dp2719
g62
(dp2720
sg71
g2705
sg64
(lp2721
g57
(g58
g59
NtRp2722
(dp2723
g62
(dp2724
g70
I3
ssg71
g2718
sg64
(lp2725
g190
asbasbasbag57
(g73
g59
NtRp2726
(dp2727
g62
(dp2728
sg71
g2449
sg64
(lp2729
g57
(g78
g59
NtRp2730
(dp2731
g62
(dp2732
g82
g83
ssg71
g2726
sg64
(lp2733
S'REMOTE_PORT'
p2734
asbag57
(g78
g59
NtRp2735
(dp2736
g62
(dp2737
g89
g90
ssg71
g2726
sg64
(lp2738
S':'
asbag57
(g78
g59
NtRp2739
(dp2740
g62
(dp2741
sg71
g2726
sg64
(lp2742
g57
(g58
g59
NtRp2743
(dp2744
g62
(dp2745
g70
I3
ssg71
g2739
sg64
(lp2746
g1329
asbasbasbag57
(g73
g59
NtRp2747
(dp2748
g62
(dp2749
sg71
g2449
sg64
(lp2750
g57
(g78
g59
NtRp2751
(dp2752
g62
(dp2753
g82
g83
ssg71
g2747
sg64
(lp2754
S'REQUEST_METHOD'
p2755
asbag57
(g78
g59
NtRp2756
(dp2757
g62
(dp2758
g89
g90
ssg71
g2747
sg64
(lp2759
S':'
asbag57
(g78
g59
NtRp2760
(dp2761
g62
(dp2762
sg71
g2747
sg64
(lp2763
g57
(g58
g59
NtRp2764
(dp2765
g62
(dp2766
g70
I3
ssg71
g2760
sg64
(lp2767
g1351
asbasbasbag57
(g73
g59
NtRp2768
(dp2769
g62
(dp2770
sg71
g2449
sg64
(lp2771
g57
(g78
g59
NtRp2772
(dp2773
g62
(dp2774
g82
g83
ssg71
g2768
sg64
(lp2775
S'SCRIPT_NAME'
p2776
asbag57
(g78
g59
NtRp2777
(dp2778
g62
(dp2779
g89
g90
ssg71
g2768
sg64
(lp2780
S':'
asbag57
(g78
g59
NtRp2781
(dp2782
g62
(dp2783
sg71
g2768
sg64
(lp2784
g57
(g58
g59
NtRp2785
(dp2786
g62
(dp2787
g70
I3
ssg71
g2781
sg64
(lp2788
S''
asbasbasbag57
(g73
g59
NtRp2789
(dp2790
g62
(dp2791
sg71
g2449
sg64
(lp2792
g57
(g78
g59
NtRp2793
(dp2794
g62
(dp2795
g82
g83
ssg71
g2789
sg64
(lp2796
S'SERVER_NAME'
p2797
asbag57
(g78
g59
NtRp2798
(dp2799
g62
(dp2800
g89
g90
ssg71
g2789
sg64
(lp2801
S':'
asbag57
(g78
g59
NtRp2802
(dp2803
g62
(dp2804
sg71
g2789
sg64
(lp2805
g57
(g58
g59
NtRp2806
(dp2807
g62
(dp2808
g70
I3
ssg71
g2802
sg64
(lp2809
g1394
asbasbasbag57
(g73
g59
NtRp2810
(dp2811
g62
(dp2812
sg71
g2449
sg64
(lp2813
g57
(g78
g59
NtRp2814
(dp2815
g62
(dp2816
g82
g83
ssg71
g2810
sg64
(lp2817
S'SERVER_PORT'
p2818
asbag57
(g78
g59
NtRp2819
(dp2820
g62
(dp2821
g89
g90
ssg71
g2810
sg64
(lp2822
S':'
asbag57
(g78
g59
NtRp2823
(dp2824
g62
(dp2825
sg71
g2810
sg64
(lp2826
g57
(g58
g59
NtRp2827
(dp2828
g62
(dp2829
g70
I3
ssg71
g2823
sg64
(lp2830
g1416
asbasbasbag57
(g73
g59
NtRp2831
(dp2832
g62
(dp2833
sg71
g2449
sg64
(lp2834
g57
(g78
g59
NtRp2835
(dp2836
g62
(dp2837
g82
g83
ssg71
g2831
sg64
(lp2838
S'SERVER_PROTOCOL'
p2839
asbag57
(g78
g59
NtRp2840
(dp2841
g62
(dp2842
g89
g90
ssg71
g2831
sg64
(lp2843
S':'
asbag57
(g78
g59
NtRp2844
(dp2845
g62
(dp2846
sg71
g2831
sg64
(lp2847
g57
(g58
g59
NtRp2848
(dp2849
g62
(dp2850
g70
I3
ssg71
g2844
sg64
(lp2851
g1438
asbasbasbag57
(g73
g59
NtRp2852
(dp2853
g62
(dp2854
sg71
g2449
sg64
(lp2855
g57
(g78
g59
NtRp2856
(dp2857
g62
(dp2858
g82
g83
ssg71
g2852
sg64
(lp2859
S'SERVER_SOFTWARE'
p2860
asbag57
(g78
g59
NtRp2861
(dp2862
g62
(dp2863
g89
g90
ssg71
g2852
sg64
(lp2864
S':'
asbag57
(g78
g59
NtRp2865
(dp2866
g62
(dp2867
sg71
g2852
sg64
(lp2868
g57
(g58
g59
NtRp2869
(dp2870
g62
(dp2871
g70
I3
ssg71
g2865
sg64
(lp2872
g1460
asbasbasbag57
(g73
g59
NtRp2873
(dp2874
g62
(dp2875
sg71
g2449
sg64
(lp2876
g57
(g78
g59
NtRp2877
(dp2878
g62
(dp2879
g82
g83
ssg71
g2873
sg64
(lp2880
S'wsgi.errors'
p2881
asbag57
(g78
g59
NtRp2882
(dp2883
g62
(dp2884
g89
g90
ssg71
g2873
sg64
(lp2885
S':'
asbag57
(g78
g59
NtRp2886
(dp2887
g62
(dp2888
sg71
g2873
sg64
(lp2889
g57
(g58
g59
NtRp2890
(dp2891
g62
(dp2892
g70
I3
ssg71
g2886
sg64
(lp2893
S"<open file '<stderr>', mode 'w' at 0xb73f70d0>"
p2894
asbasbasbag57
(g73
g59
NtRp2895
(dp2896
g62
(dp2897
sg71
g2449
sg64
(lp2898
g57
(g78
g59
NtRp2899
(dp2900
g62
(dp2901
g82
g83
ssg71
g2895
sg64
(lp2902
S'wsgi.file_wrapper'
p2903
asbag57
(g78
g59
NtRp2904
(dp2905
g62
(dp2906
g89
g90
ssg71
g2895
sg64
(lp2907
S':'
asbag57
(g78
g59
NtRp2908
(dp2909
g62
(dp2910
sg71
g2895
sg64
(lp2911
g57
(g58
g59
NtRp2912
(dp2913
g62
(dp2914
g70
I3
ssg71
g2908
sg64
(lp2915
S'<class wsgiref.util.FileWrapper at 0x8a671ac>'
p2916
asbasbasbag57
(g73
g59
NtRp2917
(dp2918
g62
(dp2919
sg71
g2449
sg64
(lp2920
g57
(g78
g59
NtRp2921
(dp2922
g62
(dp2923
g82
g83
ssg71
g2917
sg64
(lp2924
S'wsgi.input'
p2925
asbag57
(g78
g59
NtRp2926
(dp2927
g62
(dp2928
g89
g90
ssg71
g2917
sg64
(lp2929
S':'
asbag57
(g78
g59
NtRp2930
(dp2931
g62
(dp2932
sg71
g2917
sg64
(lp2933
g57
(g58
g59
NtRp2934
(dp2935
g62
(dp2936
g70
I3
ssg71
g2930
sg64
(lp2937
S'<cStringIO.StringO object at 0x915bd60>'
p2938
asbasbasbag57
(g73
g59
NtRp2939
(dp2940
g62
(dp2941
sg71
g2449
sg64
(lp2942
g57
(g78
g59
NtRp2943
(dp2944
g62
(dp2945
g82
g83
ssg71
g2939
sg64
(lp2946
S'wsgi.multiprocess'
p2947
asbag57
(g78
g59
NtRp2948
(dp2949
g62
(dp2950
g89
g90
ssg71
g2939
sg64
(lp2951
S':'
asbag57
(g78
g59
NtRp2952
(dp2953
g62
(dp2954
sg71
g2939
sg64
(lp2955
g57
(g58
g59
NtRp2956
(dp2957
g62
(dp2958
g70
I3
ssg71
g2952
sg64
(lp2959
g100
asbasbasbag57
(g73
g59
NtRp2960
(dp2961
g62
(dp2962
sg71
g2449
sg64
(lp2963
g57
(g78
g59
NtRp2964
(dp2965
g62
(dp2966
g82
g83
ssg71
g2960
sg64
(lp2967
S'wsgi.multithread'
p2968
asbag57
(g78
g59
NtRp2969
(dp2970
g62
(dp2971
g89
g90
ssg71
g2960
sg64
(lp2972
S':'
asbag57
(g78
g59
NtRp2973
(dp2974
g62
(dp2975
sg71
g2960
sg64
(lp2976
g57
(g58
g59
NtRp2977
(dp2978
g62
(dp2979
g70
I3
ssg71
g2973
sg64
(lp2980
g1700
asbasbasbag57
(g73
g59
NtRp2981
(dp2982
g62
(dp2983
sg71
g2449
sg64
(lp2984
g57
(g78
g59
NtRp2985
(dp2986
g62
(dp2987
g82
g83
ssg71
g2981
sg64
(lp2988
S'wsgi.run_once'
p2989
asbag57
(g78
g59
NtRp2990
(dp2991
g62
(dp2992
g89
g90
ssg71
g2981
sg64
(lp2993
S':'
asbag57
(g78
g59
NtRp2994
(dp2995
g62
(dp2996
sg71
g2981
sg64
(lp2997
g57
(g58
g59
NtRp2998
(dp2999
g62
(dp3000
g70
I3
ssg71
g2994
sg64
(lp3001
g100
asbasbasbag57
(g73
g59
NtRp3002
(dp3003
g62
(dp3004
sg71
g2449
sg64
(lp3005
g57
(g78
g59
NtRp3006
(dp3007
g62
(dp3008
g82
g83
ssg71
g3002
sg64
(lp3009
S'wsgi.url_scheme'
p3010
asbag57
(g78
g59
NtRp3011
(dp3012
g62
(dp3013
g89
g90
ssg71
g3002
sg64
(lp3014
S':'
asbag57
(g78
g59
NtRp3015
(dp3016
g62
(dp3017
sg71
g3002
sg64
(lp3018
g57
(g58
g59
NtRp3019
(dp3020
g62
(dp3021
g70
I3
ssg71
g3015
sg64
(lp3022
g1743
asbasbasbag57
(g73
g59
NtRp3023
(dp3024
g62
(dp3025
sg71
g2449
sg64
(lp3026
g57
(g78
g59
NtRp3027
(dp3028
g62
(dp3029
g82
g83
ssg71
g3023
sg64
(lp3030
S'wsgi.version'
p3031
asbag57
(g78
g59
NtRp3032
(dp3033
g62
(dp3034
g89
g90
ssg71
g3023
sg64
(lp3035
S':'
asbag57
(g78
g59
NtRp3036
(dp3037
g62
(dp3038
sg71
g3023
sg64
(lp3039
g57
(g58
g59
NtRp3040
(dp3041
g62
(dp3042
g70
I3
ssg71
g3036
sg64
(lp3043
S'1'
asbasbasbasbasbasbasbasbasbasbasbasbasbsS'frames'
p3044
(lp3045
(dp3046
S'file'
p3047
S'/home/diego/web2py/gluon/restricted.py'
p3048
sS'dump'
p3049
(dp3050
S'environment'
p3051
S"{'A': <class 'gluon.html.A'>, 'Auth': <class 'gluon.tools.Auth'>, 'B': <class 'gluon.html.B'>, 'BEAUTIFY': <class 'gluon.html.BEAUTIFY'>, 'BODY': <class 'gluon.html.BODY'>, 'BR': <class 'gluon.html.BR'>, 'BUTTON': <class 'gluon.html.BUTTON'>, 'CAT': <class 'gluon.html.CAT'>, 'CENTER': <class 'gluon.html.CENTER'>, 'CLEANUP': <class 'gluon.validators.CLEANUP'>, ...}"
p3052
sS'ccode'
p3053
S'<code object <module> at 0x8ef76e0, file "/home/...s/pesquisa/views/default/resultado.html", line 1>'
p3054
ssS'lnum'
p3055
I204
sS'lines'
p3056
(dp3057
I199
S'    try:'
p3058
sI200
S'        if type(code) == types.CodeType:'
p3059
sI201
S'            ccode = code'
p3060
sI202
S'        else:'
p3061
sI203
S'            ccode = compile2(code,layer)'
p3062
sI204
S'        exec ccode in environment'
p3063
sI205
S'    except HTTP:'
p3064
sI206
S'        raise'
p3065
sI207
S'    except RestrictedError:'
p3066
sI208
S'        # do not encapsulate (obfuscate) the original RestrictedError'
p3067
ssS'call'
p3068
S'(code=r\'response.write(" <html>\\n  <head>\\n    <title>Pe.../a></div>\\n     <hr>\\n\\n</html>\\n", escape=False)\', environment={\'A\': <class \'gluon.html.A\'>, \'Auth\': <class \'gluon.tools.Auth\'>, \'B\': <class \'gluon.html.B\'>, \'BEAUTIFY\': <class \'gluon.html.BEAUTIFY\'>, \'BODY\': <class \'gluon.html.BODY\'>, \'BR\': <class \'gluon.html.BR\'>, \'BUTTON\': <class \'gluon.html.BUTTON\'>, \'CAT\': <class \'gluon.html.CAT\'>, \'CENTER\': <class \'gluon.html.CENTER\'>, \'CLEANUP\': <class \'gluon.validators.CLEANUP\'>, ...}, layer=\'/home/diego/web2py/applications/pesquisa/views/default/resultado.html\')'
p3069
sS'func'
p3070
S'restricted'
p3071
sa(dp3072
g3047
S'/home/diego/web2py/applications/pesquisa/views/default/resultado.html'
p3073
sg3049
(dp3074
S'Outros'
p3075
S'undefined'
p3076
sS'Media'
p3077
g3076
sS'Salario'
p3078
g3076
sS'tr'
p3079
g3076
sS'Jr'
p3080
g3076
sS'th'
p3081
g3076
sS'Senior'
p3082
g3076
sS'Estado'
p3083
g3076
sS'Pleno'
p3084
g3076
ssg3055
I21
sg3056
(dp3085
I12
S"    response.write('</td>\\n  <td>', escape=False)"
p3086
sI13
S'    response.write(dic[state]["outros"])'
p3087
sI14
S"    response.write('</td>\\n  </tr>\\n ', escape=False)"
p3088
sI15
S'    pass'
p3089
sI16
S'response.write(\'\\n</table>\\n<br>\\n<h1>PJ</h1><br>\\n<table border="5">\\n <tr> <th>Estado</th><th>Media Salario Jr</th> <th>Media Salario Pleno</th> <th>Media Salario Senior</th> <th>Media Salario Outros</th></tr>\\n \', escape=False)'
p3090
sI17
S'for state in state_list:'
p3091
sI18
S"    response.write('\\n <tr>\\n  <td>', escape=False)"
p3092
sI19
S'    response.write(state)'
p3093
sI20
S"    response.write('</td>\\n  <td>', escape=False)"
p3094
sI21
S'    response.write(dic2[state]["junior"])'
p3095
sI22
S"    response.write('</td>\\n  <td>', escape=False)"
p3096
sI23
S'    response.write(dic2[state]["pleno"])'
p3097
sI24
S"    response.write('</td>\\n  <td>', escape=False)"
p3098
sI25
S'    response.write(dic2[state]["senior"])'
p3099
sI26
S"    response.write('</td>\\n  <td>', escape=False)"
p3100
sI27
S'    response.write(dic2[state]["outros"])'
p3101
sI28
S"    response.write('</td>\\n  </tr>\\n ', escape=False)"
p3102
sI29
S'    pass'
p3103
sI30
S"response.write('\\n</table>\\n', escape=False)"
p3104
sI31
S'response.write("\\n     </body>\\n\\n     <hr>\\n     <div align=RIGHT><a href=\'http://web2py.com/\'>Powered By Web2py</a></div>\\n     <div align=RIGHT><a href=\'http://br.linkedin.com/in/diegotostes \'>Diego Tostes Linkedin Profile</a></div>\\n     <hr>\\n\\n</html>\\n", escape=False)'
p3105
ssg3068
S'()'
p3106
sg3070
S'<module>'
p3107
sasS'pyver'
p3108
S'Python 2.7.2+: /usr/bin/python'
p3109
sS'session'
p3110
g57
(g58
g59
NtRp3111
(dp3112
g62
(dp3113
sg64
(lp3114
g57
(g66
g59
NtRp3115
(dp3116
g62
(dp3117
g70
I5
ssg71
Nsg64
(lp3118
sbasbsS'etype'
p3119
S"<type 'exceptions.KeyError'>"
p3120
sS'date'
p3121
S'Wed Jan 18 10:06:45 2012'
p3122
sS'response'
p3123
g57
(g58
g59
NtRp3124
(dp3125
g62
(dp3126
sg64
(lp3127
g57
(g66
g59
NtRp3128
(dp3129
g62
(dp3130
g70
I5
ssg71
Nsg64
(lp3131
g57
(g73
g59
NtRp3132
(dp3133
g62
(dp3134
sg71
g3128
sg64
(lp3135
g57
(g78
g59
NtRp3136
(dp3137
g62
(dp3138
g82
g83
ssg71
g3132
sg64
(lp3139
g155
asbag57
(g78
g59
NtRp3140
(dp3141
g62
(dp3142
g89
g90
ssg71
g3132
sg64
(lp3143
S':'
asbag57
(g78
g59
NtRp3144
(dp3145
g62
(dp3146
sg71
g3132
sg64
(lp3147
g57
(g58
g59
NtRp3148
(dp3149
g62
(dp3150
g70
I5
ssg71
g3144
sg64
(lp3151
S'<cStringIO.StringO object at 0x8e0c680>'
p3152
asbasbasbag57
(g73
g59
NtRp3153
(dp3154
g62
(dp3155
sg71
g3128
sg64
(lp3156
g57
(g78
g59
NtRp3157
(dp3158
g62
(dp3159
g82
g83
ssg71
g3153
sg64
(lp3160
g221
asbag57
(g78
g59
NtRp3161
(dp3162
g62
(dp3163
g89
g90
ssg71
g3153
sg64
(lp3164
S':'
asbag57
(g78
g59
NtRp3165
(dp3166
g62
(dp3167
sg71
g3153
sg64
(lp3168
g57
(g58
g59
NtRp3169
(dp3170
g62
(dp3171
g70
I5
ssg71
g3165
sg64
(lp3172
g57
(g66
g59
NtRp3173
(dp3174
g62
(dp3175
g70
I4
ssg71
Nsg64
(lp3176
g57
(g73
g59
NtRp3177
(dp3178
g62
(dp3179
sg71
g3173
sg64
(lp3180
g57
(g78
g59
NtRp3181
(dp3182
g62
(dp3183
g82
g83
ssg71
g3177
sg64
(lp3184
S'session_id_pesquisa'
p3185
asbag57
(g78
g59
NtRp3186
(dp3187
g62
(dp3188
g89
g90
ssg71
g3177
sg64
(lp3189
S':'
asbag57
(g78
g59
NtRp3190
(dp3191
g62
(dp3192
sg71
g3177
sg64
(lp3193
g57
(g58
g59
NtRp3194
(dp3195
g62
(dp3196
g70
I4
ssg71
g3190
sg64
(lp3197
g57
(g66
g59
NtRp3198
(dp3199
g62
(dp3200
g70
I3
ssg71
Nsg64
(lp3201
g57
(g73
g59
NtRp3202
(dp3203
g62
(dp3204
sg71
g3198
sg64
(lp3205
g57
(g78
g59
NtRp3206
(dp3207
g62
(dp3208
g82
g83
ssg71
g3202
sg64
(lp3209
g271
asbag57
(g78
g59
NtRp3210
(dp3211
g62
(dp3212
g89
g90
ssg71
g3202
sg64
(lp3213
S':'
asbag57
(g78
g59
NtRp3214
(dp3215
g62
(dp3216
sg71
g3202
sg64
(lp3217
g57
(g58
g59
NtRp3218
(dp3219
g62
(dp3220
g70
I3
ssg71
g3214
sg64
(lp3221
S''
asbasbasbag57
(g73
g59
NtRp3222
(dp3223
g62
(dp3224
sg71
g3198
sg64
(lp3225
g57
(g78
g59
NtRp3226
(dp3227
g62
(dp3228
g82
g83
ssg71
g3222
sg64
(lp3229
g292
asbag57
(g78
g59
NtRp3230
(dp3231
g62
(dp3232
g89
g90
ssg71
g3222
sg64
(lp3233
S':'
asbag57
(g78
g59
NtRp3234
(dp3235
g62
(dp3236
sg71
g3222
sg64
(lp3237
g57
(g58
g59
NtRp3238
(dp3239
g62
(dp3240
g70
I3
ssg71
g3234
sg64
(lp3241
S''
asbasbasbag57
(g73
g59
NtRp3242
(dp3243
g62
(dp3244
sg71
g3198
sg64
(lp3245
g57
(g78
g59
NtRp3246
(dp3247
g62
(dp3248
g82
g83
ssg71
g3242
sg64
(lp3249
g313
asbag57
(g78
g59
NtRp3250
(dp3251
g62
(dp3252
g89
g90
ssg71
g3242
sg64
(lp3253
S':'
asbag57
(g78
g59
NtRp3254
(dp3255
g62
(dp3256
sg71
g3242
sg64
(lp3257
g57
(g58
g59
NtRp3258
(dp3259
g62
(dp3260
g70
I3
ssg71
g3254
sg64
(lp3261
S''
asbasbasbag57
(g73
g59
NtRp3262
(dp3263
g62
(dp3264
sg71
g3198
sg64
(lp3265
g57
(g78
g59
NtRp3266
(dp3267
g62
(dp3268
g82
g83
ssg71
g3262
sg64
(lp3269
g334
asbag57
(g78
g59
NtRp3270
(dp3271
g62
(dp3272
g89
g90
ssg71
g3262
sg64
(lp3273
S':'
asbag57
(g78
g59
NtRp3274
(dp3275
g62
(dp3276
sg71
g3262
sg64
(lp3277
g57
(g58
g59
NtRp3278
(dp3279
g62
(dp3280
g70
I3
ssg71
g3274
sg64
(lp3281
S''
asbasbasbag57
(g73
g59
NtRp3282
(dp3283
g62
(dp3284
sg71
g3198
sg64
(lp3285
g57
(g78
g59
NtRp3286
(dp3287
g62
(dp3288
g82
g83
ssg71
g3282
sg64
(lp3289
g355
asbag57
(g78
g59
NtRp3290
(dp3291
g62
(dp3292
g89
g90
ssg71
g3282
sg64
(lp3293
S':'
asbag57
(g78
g59
NtRp3294
(dp3295
g62
(dp3296
sg71
g3282
sg64
(lp3297
g57
(g58
g59
NtRp3298
(dp3299
g62
(dp3300
g70
I3
ssg71
g3294
sg64
(lp3301
S''
asbasbasbag57
(g73
g59
NtRp3302
(dp3303
g62
(dp3304
sg71
g3198
sg64
(lp3305
g57
(g78
g59
NtRp3306
(dp3307
g62
(dp3308
g82
g83
ssg71
g3302
sg64
(lp3309
g376
asbag57
(g78
g59
NtRp3310
(dp3311
g62
(dp3312
g89
g90
ssg71
g3302
sg64
(lp3313
S':'
asbag57
(g78
g59
NtRp3314
(dp3315
g62
(dp3316
sg71
g3302
sg64
(lp3317
g57
(g58
g59
NtRp3318
(dp3319
g62
(dp3320
g70
I3
ssg71
g3314
sg64
(lp3321
S'/'
asbasbasbag57
(g73
g59
NtRp3322
(dp3323
g62
(dp3324
sg71
g3198
sg64
(lp3325
g57
(g78
g59
NtRp3326
(dp3327
g62
(dp3328
g82
g83
ssg71
g3322
sg64
(lp3329
g397
asbag57
(g78
g59
NtRp3330
(dp3331
g62
(dp3332
g89
g90
ssg71
g3322
sg64
(lp3333
S':'
asbag57
(g78
g59
NtRp3334
(dp3335
g62
(dp3336
sg71
g3322
sg64
(lp3337
g57
(g58
g59
NtRp3338
(dp3339
g62
(dp3340
g70
I3
ssg71
g3334
sg64
(lp3341
S''
asbasbasbag57
(g73
g59
NtRp3342
(dp3343
g62
(dp3344
sg71
g3198
sg64
(lp3345
g57
(g78
g59
NtRp3346
(dp3347
g62
(dp3348
g82
g83
ssg71
g3342
sg64
(lp3349
g418
asbag57
(g78
g59
NtRp3350
(dp3351
g62
(dp3352
g89
g90
ssg71
g3342
sg64
(lp3353
S':'
asbag57
(g78
g59
NtRp3354
(dp3355
g62
(dp3356
sg71
g3342
sg64
(lp3357
g57
(g58
g59
NtRp3358
(dp3359
g62
(dp3360
g70
I3
ssg71
g3354
sg64
(lp3361
S''
asbasbasbasbasbasbasbasbasbasbasbag57
(g73
g59
NtRp3362
(dp3363
g62
(dp3364
sg71
g3128
sg64
(lp3365
g57
(g78
g59
NtRp3366
(dp3367
g62
(dp3368
g82
g83
ssg71
g3362
sg64
(lp3369
S'files'
p3370
asbag57
(g78
g59
NtRp3371
(dp3372
g62
(dp3373
g89
g90
ssg71
g3362
sg64
(lp3374
S':'
asbag57
(g78
g59
NtRp3375
(dp3376
g62
(dp3377
sg71
g3362
sg64
(lp3378
g57
(g58
g59
NtRp3379
(dp3380
g62
(dp3381
g70
I5
ssg71
g3375
sg64
(lp3382
g57
(g66
g59
NtRp3383
(dp3384
g62
(dp3385
g70
I4
ssg71
Nsg64
(lp3386
sbasbasbasbag57
(g73
g59
NtRp3387
(dp3388
g62
(dp3389
sg71
g3128
sg64
(lp3390
g57
(g78
g59
NtRp3391
(dp3392
g62
(dp3393
g82
g83
ssg71
g3387
sg64
(lp3394
S'flash'
p3395
asbag57
(g78
g59
NtRp3396
(dp3397
g62
(dp3398
g89
g90
ssg71
g3387
sg64
(lp3399
S':'
asbag57
(g78
g59
NtRp3400
(dp3401
g62
(dp3402
sg71
g3387
sg64
(lp3403
g57
(g58
g59
NtRp3404
(dp3405
g62
(dp3406
g70
I5
ssg71
g3400
sg64
(lp3407
S''
asbasbasbag57
(g73
g59
NtRp3408
(dp3409
g62
(dp3410
sg71
g3128
sg64
(lp3411
g57
(g78
g59
NtRp3412
(dp3413
g62
(dp3414
g82
g83
ssg71
g3408
sg64
(lp3415
S'generic_patterns'
p3416
asbag57
(g78
g59
NtRp3417
(dp3418
g62
(dp3419
g89
g90
ssg71
g3408
sg64
(lp3420
S':'
asbag57
(g78
g59
NtRp3421
(dp3422
g62
(dp3423
sg71
g3408
sg64
(lp3424
g57
(g58
g59
NtRp3425
(dp3426
g62
(dp3427
g70
I5
ssg71
g3421
sg64
(lp3428
g57
(g66
g59
NtRp3429
(dp3430
g62
(dp3431
g70
I4
ssg71
Nsg64
(lp3432
g57
(g73
g59
NtRp3433
(dp3434
g62
(dp3435
sg71
g3429
sg64
(lp3436
g57
(g78
g59
NtRp3437
(dp3438
g62
(dp3439
sg71
g3433
sg64
(lp3440
g57
(g58
g59
NtRp3441
(dp3442
g62
(dp3443
g70
I4
ssg71
g3437
sg64
(lp3444
S'*'
asbasbasbasbasbasbasbag57
(g73
g59
NtRp3445
(dp3446
g62
(dp3447
sg71
g3128
sg64
(lp3448
g57
(g78
g59
NtRp3449
(dp3450
g62
(dp3451
g82
g83
ssg71
g3445
sg64
(lp3452
S'headers'
p3453
asbag57
(g78
g59
NtRp3454
(dp3455
g62
(dp3456
g89
g90
ssg71
g3445
sg64
(lp3457
S':'
asbag57
(g78
g59
NtRp3458
(dp3459
g62
(dp3460
sg71
g3445
sg64
(lp3461
g57
(g58
g59
NtRp3462
(dp3463
g62
(dp3464
g70
I5
ssg71
g3458
sg64
(lp3465
g57
(g66
g59
NtRp3466
(dp3467
g62
(dp3468
g70
I4
ssg71
Nsg64
(lp3469
g57
(g73
g59
NtRp3470
(dp3471
g62
(dp3472
sg71
g3466
sg64
(lp3473
g57
(g78
g59
NtRp3474
(dp3475
g62
(dp3476
g82
g83
ssg71
g3470
sg64
(lp3477
S'Cache-Control'
p3478
asbag57
(g78
g59
NtRp3479
(dp3480
g62
(dp3481
g89
g90
ssg71
g3470
sg64
(lp3482
S':'
asbag57
(g78
g59
NtRp3483
(dp3484
g62
(dp3485
sg71
g3470
sg64
(lp3486
g57
(g58
g59
NtRp3487
(dp3488
g62
(dp3489
g70
I4
ssg71
g3483
sg64
(lp3490
S'no-store, no-cache, must-revalidate, post-check=0, pre-check=0'
p3491
asbasbasbag57
(g73
g59
NtRp3492
(dp3493
g62
(dp3494
sg71
g3466
sg64
(lp3495
g57
(g78
g59
NtRp3496
(dp3497
g62
(dp3498
g82
g83
ssg71
g3492
sg64
(lp3499
S'Content-Type'
p3500
asbag57
(g78
g59
NtRp3501
(dp3502
g62
(dp3503
g89
g90
ssg71
g3492
sg64
(lp3504
S':'
asbag57
(g78
g59
NtRp3505
(dp3506
g62
(dp3507
sg71
g3492
sg64
(lp3508
g57
(g58
g59
NtRp3509
(dp3510
g62
(dp3511
g70
I4
ssg71
g3505
sg64
(lp3512
S'text/html; charset=utf-8'
p3513
asbasbasbag57
(g73
g59
NtRp3514
(dp3515
g62
(dp3516
sg71
g3466
sg64
(lp3517
g57
(g78
g59
NtRp3518
(dp3519
g62
(dp3520
g82
g83
ssg71
g3514
sg64
(lp3521
S'Expires'
p3522
asbag57
(g78
g59
NtRp3523
(dp3524
g62
(dp3525
g89
g90
ssg71
g3514
sg64
(lp3526
S':'
asbag57
(g78
g59
NtRp3527
(dp3528
g62
(dp3529
sg71
g3514
sg64
(lp3530
g57
(g58
g59
NtRp3531
(dp3532
g62
(dp3533
g70
I4
ssg71
g3527
sg64
(lp3534
S'Wed, 18 Jan 2012 12:06:44 GMT'
p3535
asbasbasbag57
(g73
g59
NtRp3536
(dp3537
g62
(dp3538
sg71
g3466
sg64
(lp3539
g57
(g78
g59
NtRp3540
(dp3541
g62
(dp3542
g82
g83
ssg71
g3536
sg64
(lp3543
S'Pragma'
p3544
asbag57
(g78
g59
NtRp3545
(dp3546
g62
(dp3547
g89
g90
ssg71
g3536
sg64
(lp3548
S':'
asbag57
(g78
g59
NtRp3549
(dp3550
g62
(dp3551
sg71
g3536
sg64
(lp3552
g57
(g58
g59
NtRp3553
(dp3554
g62
(dp3555
g70
I4
ssg71
g3549
sg64
(lp3556
S'no-cache'
p3557
asbasbasbag57
(g73
g59
NtRp3558
(dp3559
g62
(dp3560
sg71
g3466
sg64
(lp3561
g57
(g78
g59
NtRp3562
(dp3563
g62
(dp3564
g82
g83
ssg71
g3558
sg64
(lp3565
S'X-Powered-By'
p3566
asbag57
(g78
g59
NtRp3567
(dp3568
g62
(dp3569
g89
g90
ssg71
g3558
sg64
(lp3570
S':'
asbag57
(g78
g59
NtRp3571
(dp3572
g62
(dp3573
sg71
g3558
sg64
(lp3574
g57
(g58
g59
NtRp3575
(dp3576
g62
(dp3577
g70
I4
ssg71
g3571
sg64
(lp3578
S'web2py'
p3579
asbasbasbasbasbasbasbag57
(g73
g59
NtRp3580
(dp3581
g62
(dp3582
sg71
g3128
sg64
(lp3583
g57
(g78
g59
NtRp3584
(dp3585
g62
(dp3586
g82
g83
ssg71
g3580
sg64
(lp3587
S'menu'
p3588
asbag57
(g78
g59
NtRp3589
(dp3590
g62
(dp3591
g89
g90
ssg71
g3580
sg64
(lp3592
S':'
asbag57
(g78
g59
NtRp3593
(dp3594
g62
(dp3595
sg71
g3580
sg64
(lp3596
g57
(g58
g59
NtRp3597
(dp3598
g62
(dp3599
g70
I5
ssg71
g3593
sg64
(lp3600
g57
(g66
g59
NtRp3601
(dp3602
g62
(dp3603
g70
I4
ssg71
Nsg64
(lp3604
g57
(g73
g59
NtRp3605
(dp3606
g62
(dp3607
sg71
g3601
sg64
(lp3608
g57
(g78
g59
NtRp3609
(dp3610
g62
(dp3611
sg71
g3605
sg64
(lp3612
g57
(g58
g59
NtRp3613
(dp3614
g62
(dp3615
g70
I4
ssg71
g3609
sg64
(lp3616
g57
(g66
g59
NtRp3617
(dp3618
g62
(dp3619
g70
I3
ssg71
Nsg64
(lp3620
g57
(g73
g59
NtRp3621
(dp3622
g62
(dp3623
sg71
g3617
sg64
(lp3624
g57
(g78
g59
NtRp3625
(dp3626
g62
(dp3627
sg71
g3621
sg64
(lp3628
g57
(g58
g59
NtRp3629
(dp3630
g62
(dp3631
g70
I3
ssg71
g3625
sg64
(lp3632
cgluon.languages
lazyT_unpickle
p3633
(S't\x04\x00\x00\x00Home'
tRp3634
asbasbasbag57
(g73
g59
NtRp3635
(dp3636
g62
(dp3637
sg71
g3617
sg64
(lp3638
g57
(g78
g59
NtRp3639
(dp3640
g62
(dp3641
sg71
g3635
sg64
(lp3642
g57
(g58
g59
NtRp3643
(dp3644
g62
(dp3645
g70
I3
ssg71
g3639
sg64
(lp3646
g100
asbasbasbag57
(g73
g59
NtRp3647
(dp3648
g62
(dp3649
sg71
g3617
sg64
(lp3650
g57
(g78
g59
NtRp3651
(dp3652
g62
(dp3653
sg71
g3647
sg64
(lp3654
g57
(g58
g59
NtRp3655
(dp3656
g62
(dp3657
g70
I3
ssg71
g3651
sg64
(lp3658
S'/pesquisa/default/index'
p3659
asbasbasbag57
(g73
g59
NtRp3660
(dp3661
g62
(dp3662
sg71
g3617
sg64
(lp3663
g57
(g78
g59
NtRp3664
(dp3665
g62
(dp3666
sg71
g3660
sg64
(lp3667
g57
(g58
g59
NtRp3668
(dp3669
g62
(dp3670
g70
I3
ssg71
g3664
sg64
(lp3671
g57
(g66
g59
NtRp3672
(dp3673
g62
(dp3674
g70
I2
ssg71
Nsg64
(lp3675
sbasbasbasbasbasbasbasbag57
(g73
g59
NtRp3676
(dp3677
g62
(dp3678
sg71
g3601
sg64
(lp3679
g57
(g78
g59
NtRp3680
(dp3681
g62
(dp3682
sg71
g3676
sg64
(lp3683
g57
(g58
g59
NtRp3684
(dp3685
g62
(dp3686
g70
I4
ssg71
g3680
sg64
(lp3687
g57
(g66
g59
NtRp3688
(dp3689
g62
(dp3690
g70
I3
ssg71
Nsg64
(lp3691
g57
(g73
g59
NtRp3692
(dp3693
g62
(dp3694
sg71
g3688
sg64
(lp3695
g57
(g78
g59
NtRp3696
(dp3697
g62
(dp3698
sg71
g3692
sg64
(lp3699
g57
(g58
g59
NtRp3700
(dp3701
g62
(dp3702
g70
I3
ssg71
g3696
sg64
(lp3703
g57
(cgluon.html
SPAN
p3704
g59
NtRp3705
(dp3706
g62
(dp3707
g82
S'color:yellow'
p3708
ssg71
Nsg64
(lp3709
g3579
asbasbasbasbag57
(g73
g59
NtRp3710
(dp3711
g62
(dp3712
sg71
g3688
sg64
(lp3713
g57
(g78
g59
NtRp3714
(dp3715
g62
(dp3716
sg71
g3710
sg64
(lp3717
g57
(g58
g59
NtRp3718
(dp3719
g62
(dp3720
g70
I3
ssg71
g3714
sg64
(lp3721
g100
asbasbasbag57
(g73
g59
NtRp3722
(dp3723
g62
(dp3724
sg71
g3688
sg64
(lp3725
g57
(g78
g59
NtRp3726
(dp3727
g62
(dp3728
sg71
g3722
sg64
(lp3729
g57
(g58
g59
NtRp3730
(dp3731
g62
(dp3732
g70
I3
ssg71
g3726
sg64
(lp3733
S'None'
p3734
asbasbasbag57
(g73
g59
NtRp3735
(dp3736
g62
(dp3737
sg71
g3688
sg64
(lp3738
g57
(g78
g59
NtRp3739
(dp3740
g62
(dp3741
sg71
g3735
sg64
(lp3742
g57
(g58
g59
NtRp3743
(dp3744
g62
(dp3745
g70
I3
ssg71
g3739
sg64
(lp3746
g57
(g66
g59
NtRp3747
(dp3748
g62
(dp3749
g70
I2
ssg71
Nsg64
(lp3750
g57
(g73
g59
NtRp3751
(dp3752
g62
(dp3753
sg71
g3747
sg64
(lp3754
g57
(g78
g59
NtRp3755
(dp3756
g62
(dp3757
sg71
g3751
sg64
(lp3758
g57
(g58
g59
NtRp3759
(dp3760
g62
(dp3761
g70
I2
ssg71
g3755
sg64
(lp3762
g57
(g66
g59
NtRp3763
(dp3764
g62
(dp3765
g70
I1
ssg71
Nsg64
(lp3766
g57
(g73
g59
NtRp3767
(dp3768
g62
(dp3769
sg71
g3763
sg64
(lp3770
g57
(g78
g59
NtRp3771
(dp3772
g62
(dp3773
sg71
g3767
sg64
(lp3774
g57
(g58
g59
NtRp3775
(dp3776
g62
(dp3777
g70
I1
ssg71
g3771
sg64
(lp3778
g3633
(S's\x08\x00\x00\x00My Sites'
tRp3779
asbasbasbag57
(g73
g59
NtRp3780
(dp3781
g62
(dp3782
sg71
g3763
sg64
(lp3783
g57
(g78
g59
NtRp3784
(dp3785
g62
(dp3786
sg71
g3780
sg64
(lp3787
g57
(g58
g59
NtRp3788
(dp3789
g62
(dp3790
g70
I1
ssg71
g3784
sg64
(lp3791
I00
asbasbasbag57
(g73
g59
NtRp3792
(dp3793
g62
(dp3794
sg71
g3763
sg64
(lp3795
g57
(g78
g59
NtRp3796
(dp3797
g62
(dp3798
sg71
g3792
sg64
(lp3799
g57
(g58
g59
NtRp3800
(dp3801
g62
(dp3802
g70
I1
ssg71
g3796
sg64
(lp3803
S'/admin/default/site'
p3804
asbasbasbasbasbasbasbag57
(g73
g59
NtRp3805
(dp3806
g62
(dp3807
sg71
g3747
sg64
(lp3808
g57
(g78
g59
NtRp3809
(dp3810
g62
(dp3811
sg71
g3805
sg64
(lp3812
g57
(g58
g59
NtRp3813
(dp3814
g62
(dp3815
g70
I2
ssg71
g3809
sg64
(lp3816
g57
(g66
g59
NtRp3817
(dp3818
g62
(dp3819
g70
I1
ssg71
Nsg64
(lp3820
g57
(g73
g59
NtRp3821
(dp3822
g62
(dp3823
sg71
g3817
sg64
(lp3824
g57
(g78
g59
NtRp3825
(dp3826
g62
(dp3827
sg71
g3821
sg64
(lp3828
g57
(g58
g59
NtRp3829
(dp3830
g62
(dp3831
g70
I1
ssg71
g3825
sg64
(lp3832
g3633
(S's\x08\x00\x00\x00This App'
tRp3833
asbasbasbag57
(g73
g59
NtRp3834
(dp3835
g62
(dp3836
sg71
g3817
sg64
(lp3837
g57
(g78
g59
NtRp3838
(dp3839
g62
(dp3840
sg71
g3834
sg64
(lp3841
g57
(g58
g59
NtRp3842
(dp3843
g62
(dp3844
g70
I1
ssg71
g3838
sg64
(lp3845
I00
asbasbasbag57
(g73
g59
NtRp3846
(dp3847
g62
(dp3848
sg71
g3817
sg64
(lp3849
g57
(g78
g59
NtRp3850
(dp3851
g62
(dp3852
sg71
g3846
sg64
(lp3853
g57
(g58
g59
NtRp3854
(dp3855
g62
(dp3856
g70
I1
ssg71
g3850
sg64
(lp3857
S'/admin/default/design/pesquisa'
p3858
asbasbasbag57
(g73
g59
NtRp3859
(dp3860
g62
(dp3861
sg71
g3817
sg64
(lp3862
g57
(g78
g59
NtRp3863
(dp3864
g62
(dp3865
sg71
g3859
sg64
(lp3866
g57
(g58
g59
NtRp3867
(dp3868
g62
(dp3869
g70
I1
ssg71
g3863
sg64
(lp3870
(lp3871
(g3633
(S't\x0b\x00\x00\x00Controlador'
tRp3872
I00
S'/admin/default/edit/pesquisa/controllers/default.py'
tp3873
a(g3633
(S's\x0e\x00\x00\x00Visualiza\xc3\xa7\xc3\xa3o'
tRp3874
I00
S'/admin/default/edit/pesquisa/views/default/resultado.html'
tp3875
a(g3633
(S't\x06\x00\x00\x00Layout'
tRp3876
I00
S'/admin/default/edit/pesquisa/views/layout.html'
tp3877
a(g3633
(S't\n\x00\x00\x00Stylesheet'
tRp3878
I00
S'/admin/default/edit/pesquisa/static/css/web2py.css'
tp3879
a(g3633
(S's\t\x00\x00\x00Modelo BD'
tRp3880
I00
S'/admin/default/edit/pesquisa/models/db.py'
tp3881
a(g3633
(S's\x0e\x00\x00\x00Modelo de Menu'
tRp3882
I00
S'/admin/default/edit/pesquisa/models/menu.py'
tp3883
a(g3633
(S's\x0e\x00\x00\x00Banco de dados'
tRp3884
I00
S'/pesquisa/appadmin/index'
tp3885
a(g3633
(S't\x06\x00\x00\x00Errors'
tRp3886
I00
S'/admin/default/errors/pesquisa'
tp3887
a(g3633
(S't\x05\x00\x00\x00About'
tRp3888
I00
S'/admin/default/about/pesquisa'
tp3889
aasbasbasbasbasbasbasbag57
(g73
g59
NtRp3890
(dp3891
g62
(dp3892
sg71
g3747
sg64
(lp3893
g57
(g78
g59
NtRp3894
(dp3895
g62
(dp3896
sg71
g3890
sg64
(lp3897
g57
(g58
g59
NtRp3898
(dp3899
g62
(dp3900
g70
I2
ssg71
g3894
sg64
(lp3901
g57
(g66
g59
NtRp3902
(dp3903
g62
(dp3904
g70
I1
ssg71
Nsg64
(lp3905
g57
(g73
g59
NtRp3906
(dp3907
g62
(dp3908
sg71
g3902
sg64
(lp3909
g57
(g78
g59
NtRp3910
(dp3911
g62
(dp3912
sg71
g3906
sg64
(lp3913
g57
(g58
g59
NtRp3914
(dp3915
g62
(dp3916
g70
I1
ssg71
g3910
sg64
(lp3917
S'web2py.com'
p3918
asbasbasbag57
(g73
g59
NtRp3919
(dp3920
g62
(dp3921
sg71
g3902
sg64
(lp3922
g57
(g78
g59
NtRp3923
(dp3924
g62
(dp3925
sg71
g3919
sg64
(lp3926
g57
(g58
g59
NtRp3927
(dp3928
g62
(dp3929
g70
I1
ssg71
g3923
sg64
(lp3930
I00
asbasbasbag57
(g73
g59
NtRp3931
(dp3932
g62
(dp3933
sg71
g3902
sg64
(lp3934
g57
(g78
g59
NtRp3935
(dp3936
g62
(dp3937
sg71
g3931
sg64
(lp3938
g57
(g58
g59
NtRp3939
(dp3940
g62
(dp3941
g70
I1
ssg71
g3935
sg64
(lp3942
S'http://www.web2py.com'
p3943
asbasbasbag57
(g73
g59
NtRp3944
(dp3945
g62
(dp3946
sg71
g3902
sg64
(lp3947
g57
(g78
g59
NtRp3948
(dp3949
g62
(dp3950
sg71
g3944
sg64
(lp3951
g57
(g58
g59
NtRp3952
(dp3953
g62
(dp3954
g70
I1
ssg71
g3948
sg64
(lp3955
(lp3956
(g3633
(S't\x08\x00\x00\x00Download'
tRp3957
I00
S'http://www.web2py.com/examples/default/download'
p3958
tp3959
a(g3633
(S't\x07\x00\x00\x00Support'
tRp3960
I00
S'http://www.web2py.com/examples/default/support'
p3961
tp3962
a(g3633
(S't\x04\x00\x00\x00Demo'
tRp3963
I00
S'http://web2py.com/demo_admin'
p3964
tp3965
a(g3633
(S's\x0e\x00\x00\x00Quick Examples'
tRp3966
I00
S'http://web2py.com/examples/default/examples'
p3967
tp3968
a(g3633
(S't\x03\x00\x00\x00FAQ'
tRp3969
I00
S'http://web2py.com/AlterEgo'
p3970
tp3971
a(g3633
(S't\x06\x00\x00\x00Videos'
tRp3972
I00
S'http://www.web2py.com/examples/default/videos/'
p3973
tp3974
a(g3633
(S's\x11\x00\x00\x00Free Applications'
tRp3975
I00
S'http://web2py.com/appliances'
p3976
tp3977
a(g3633
(S't\x07\x00\x00\x00Plugins'
tRp3978
I00
S'http://web2py.com/plugins'
p3979
tp3980
a(g3633
(S't\x07\x00\x00\x00Layouts'
tRp3981
I00
S'http://web2py.com/layouts'
p3982
tp3983
a(g3633
(S't\x07\x00\x00\x00Recipes'
tRp3984
I00
S'http://web2pyslices.com/'
p3985
tp3986
a(g3633
(S't\x08\x00\x00\x00Semantic'
tRp3987
I00
S'http://web2py.com/semantic'
p3988
tp3989
aasbasbasbasbasbasbasbag57
(g73
g59
NtRp3990
(dp3991
g62
(dp3992
sg71
g3747
sg64
(lp3993
g57
(g78
g59
NtRp3994
(dp3995
g62
(dp3996
sg71
g3990
sg64
(lp3997
g57
(g58
g59
NtRp3998
(dp3999
g62
(dp4000
g70
I2
ssg71
g3994
sg64
(lp4001
g57
(g66
g59
NtRp4002
(dp4003
g62
(dp4004
g70
I1
ssg71
Nsg64
(lp4005
g57
(g73
g59
NtRp4006
(dp4007
g62
(dp4008
sg71
g4002
sg64
(lp4009
g57
(g78
g59
NtRp4010
(dp4011
g62
(dp4012
sg71
g4006
sg64
(lp4013
g57
(g58
g59
NtRp4014
(dp4015
g62
(dp4016
g70
I1
ssg71
g4010
sg64
(lp4017
g3633
(S't\r\x00\x00\x00Documentation'
tRp4018
asbasbasbag57
(g73
g59
NtRp4019
(dp4020
g62
(dp4021
sg71
g4002
sg64
(lp4022
g57
(g78
g59
NtRp4023
(dp4024
g62
(dp4025
sg71
g4019
sg64
(lp4026
g57
(g58
g59
NtRp4027
(dp4028
g62
(dp4029
g70
I1
ssg71
g4023
sg64
(lp4030
I00
asbasbasbag57
(g73
g59
NtRp4031
(dp4032
g62
(dp4033
sg71
g4002
sg64
(lp4034
g57
(g78
g59
NtRp4035
(dp4036
g62
(dp4037
sg71
g4031
sg64
(lp4038
g57
(g58
g59
NtRp4039
(dp4040
g62
(dp4041
g70
I1
ssg71
g4035
sg64
(lp4042
S'http://www.web2py.com/book'
p4043
asbasbasbag57
(g73
g59
NtRp4044
(dp4045
g62
(dp4046
sg71
g4002
sg64
(lp4047
g57
(g78
g59
NtRp4048
(dp4049
g62
(dp4050
sg71
g4044
sg64
(lp4051
g57
(g58
g59
NtRp4052
(dp4053
g62
(dp4054
g70
I1
ssg71
g4048
sg64
(lp4055
(lp4056
(g3633
(S't\x07\x00\x00\x00Preface'
tRp4057
I00
S'http://www.web2py.com/book/default/chapter/00'
p4058
tp4059
a(g3633
(S't\x0c\x00\x00\x00Introduction'
tRp4060
I00
S'http://www.web2py.com/book/default/chapter/01'
p4061
tp4062
a(g3633
(S't\x06\x00\x00\x00Python'
tRp4063
I00
S'http://www.web2py.com/book/default/chapter/02'
p4064
tp4065
a(g3633
(S't\x08\x00\x00\x00Overview'
tRp4066
I00
S'http://www.web2py.com/book/default/chapter/03'
p4067
tp4068
a(g3633
(S's\x08\x00\x00\x00The Core'
tRp4069
I00
S'http://www.web2py.com/book/default/chapter/04'
p4070
tp4071
a(g3633
(S's\t\x00\x00\x00The Views'
tRp4072
I00
S'http://www.web2py.com/book/default/chapter/05'
p4073
tp4074
a(g3633
(S's\x0e\x00\x00\x00Banco de dados'
tRp4075
I00
S'http://www.web2py.com/book/default/chapter/06'
p4076
tp4077
a(g3633
(S's\x14\x00\x00\x00Forms and Validators'
tRp4078
I00
S'http://www.web2py.com/book/default/chapter/07'
p4079
tp4080
a(g3633
(S's\r\x00\x00\x00Email and SMS'
tRp4081
I00
S'http://www.web2py.com/book/default/chapter/08'
p4082
tp4083
a(g3633
(S's\x0e\x00\x00\x00Access Control'
tRp4084
I00
S'http://www.web2py.com/book/default/chapter/09'
p4085
tp4086
a(g3633
(S't\x08\x00\x00\x00Services'
tRp4087
I00
S'http://www.web2py.com/book/default/chapter/10'
p4088
tp4089
a(g3633
(S's\x0c\x00\x00\x00Ajax Recipes'
tRp4090
I00
S'http://www.web2py.com/book/default/chapter/11'
p4091
tp4092
a(g3633
(S's\x16\x00\x00\x00Components and Plugins'
tRp4093
I00
S'http://www.web2py.com/book/default/chapter/12'
p4094
tp4095
a(g3633
(S's\x12\x00\x00\x00Deployment Recipes'
tRp4096
I00
S'http://www.web2py.com/book/default/chapter/13'
p4097
tp4098
a(g3633
(S's\r\x00\x00\x00Other Recipes'
tRp4099
I00
S'http://www.web2py.com/book/default/chapter/14'
p4100
tp4101
a(g3633
(S's\r\x00\x00\x00Buy this book'
tRp4102
I00
S'http://stores.lulu.com/web2py'
p4103
tp4104
aasbasbasbasbasbasbasbag57
(g73
g59
NtRp4105
(dp4106
g62
(dp4107
sg71
g3747
sg64
(lp4108
g57
(g78
g59
NtRp4109
(dp4110
g62
(dp4111
sg71
g4105
sg64
(lp4112
g57
(g58
g59
NtRp4113
(dp4114
g62
(dp4115
g70
I2
ssg71
g4109
sg64
(lp4116
g57
(g66
g59
NtRp4117
(dp4118
g62
(dp4119
g70
I1
ssg71
Nsg64
(lp4120
g57
(g73
g59
NtRp4121
(dp4122
g62
(dp4123
sg71
g4117
sg64
(lp4124
g57
(g78
g59
NtRp4125
(dp4126
g62
(dp4127
sg71
g4121
sg64
(lp4128
g57
(g58
g59
NtRp4129
(dp4130
g62
(dp4131
g70
I1
ssg71
g4125
sg64
(lp4132
g3633
(S't\t\x00\x00\x00Community'
tRp4133
asbasbasbag57
(g73
g59
NtRp4134
(dp4135
g62
(dp4136
sg71
g4117
sg64
(lp4137
g57
(g78
g59
NtRp4138
(dp4139
g62
(dp4140
sg71
g4134
sg64
(lp4141
g57
(g58
g59
NtRp4142
(dp4143
g62
(dp4144
g70
I1
ssg71
g4138
sg64
(lp4145
I00
asbasbasbag57
(g73
g59
NtRp4146
(dp4147
g62
(dp4148
sg71
g4117
sg64
(lp4149
g57
(g78
g59
NtRp4150
(dp4151
g62
(dp4152
sg71
g4146
sg64
(lp4153
g57
(g58
g59
NtRp4154
(dp4155
g62
(dp4156
g70
I1
ssg71
g4150
sg64
(lp4157
Nasbasbasbag57
(g73
g59
NtRp4158
(dp4159
g62
(dp4160
sg71
g4117
sg64
(lp4161
g57
(g78
g59
NtRp4162
(dp4163
g62
(dp4164
sg71
g4158
sg64
(lp4165
g57
(g58
g59
NtRp4166
(dp4167
g62
(dp4168
g70
I1
ssg71
g4162
sg64
(lp4169
(lp4170
(g3633
(S't\x06\x00\x00\x00Groups'
tRp4171
I00
S'http://www.web2py.com/examples/default/usergroups'
p4172
tp4173
a(g3633
(S't\x07\x00\x00\x00Twitter'
tRp4174
I00
S'http://twitter.com/web2py'
p4175
tp4176
a(g3633
(S's\t\x00\x00\x00Live Chat'
tRp4177
I00
S'http://webchat.freenode.net/?channels=web2py'
p4178
tp4179
aasbasbasbasbasbasbasbag57
(g73
g59
NtRp4180
(dp4181
g62
(dp4182
sg71
g3747
sg64
(lp4183
g57
(g78
g59
NtRp4184
(dp4185
g62
(dp4186
sg71
g4180
sg64
(lp4187
g57
(g58
g59
NtRp4188
(dp4189
g62
(dp4190
g70
I2
ssg71
g4184
sg64
(lp4191
g57
(g66
g59
NtRp4192
(dp4193
g62
(dp4194
g70
I1
ssg71
Nsg64
(lp4195
g57
(g73
g59
NtRp4196
(dp4197
g62
(dp4198
sg71
g4192
sg64
(lp4199
g57
(g78
g59
NtRp4200
(dp4201
g62
(dp4202
sg71
g4196
sg64
(lp4203
g57
(g58
g59
NtRp4204
(dp4205
g62
(dp4206
g70
I1
ssg71
g4200
sg64
(lp4207
g3633
(S't\x07\x00\x00\x00Plugins'
tRp4208
asbasbasbag57
(g73
g59
NtRp4209
(dp4210
g62
(dp4211
sg71
g4192
sg64
(lp4212
g57
(g78
g59
NtRp4213
(dp4214
g62
(dp4215
sg71
g4209
sg64
(lp4216
g57
(g58
g59
NtRp4217
(dp4218
g62
(dp4219
g70
I1
ssg71
g4213
sg64
(lp4220
I00
asbasbasbag57
(g73
g59
NtRp4221
(dp4222
g62
(dp4223
sg71
g4192
sg64
(lp4224
g57
(g78
g59
NtRp4225
(dp4226
g62
(dp4227
sg71
g4221
sg64
(lp4228
g57
(g58
g59
NtRp4229
(dp4230
g62
(dp4231
g70
I1
ssg71
g4225
sg64
(lp4232
Nasbasbasbag57
(g73
g59
NtRp4233
(dp4234
g62
(dp4235
sg71
g4192
sg64
(lp4236
g57
(g78
g59
NtRp4237
(dp4238
g62
(dp4239
sg71
g4233
sg64
(lp4240
g57
(g58
g59
NtRp4241
(dp4242
g62
(dp4243
g70
I1
ssg71
g4237
sg64
(lp4244
(lp4245
(S'plugin_wiki'
p4246
I00
S'http://web2py.com/examples/default/download'
p4247
tp4248
a(g3633
(S's\r\x00\x00\x00Other Plugins'
tRp4249
I00
g3979
tp4250
a(g3633
(S's\x0e\x00\x00\x00Layout Plugins'
tRp4251
I00
g3982
tp4252
aasbasbasbasbasbasbasbasbasbasbasbasbasbasbasbasbasbasbasbag57
(g73
g59
NtRp4253
(dp4254
g62
(dp4255
sg71
g3128
sg64
(lp4256
g57
(g78
g59
NtRp4257
(dp4258
g62
(dp4259
g82
g83
ssg71
g4253
sg64
(lp4260
S'meta'
p4261
asbag57
(g78
g59
NtRp4262
(dp4263
g62
(dp4264
g89
g90
ssg71
g4253
sg64
(lp4265
S':'
asbag57
(g78
g59
NtRp4266
(dp4267
g62
(dp4268
sg71
g4253
sg64
(lp4269
g57
(g58
g59
NtRp4270
(dp4271
g62
(dp4272
g70
I5
ssg71
g4266
sg64
(lp4273
g57
(g66
g59
NtRp4274
(dp4275
g62
(dp4276
g70
I4
ssg71
Nsg64
(lp4277
g57
(g73
g59
NtRp4278
(dp4279
g62
(dp4280
sg71
g4274
sg64
(lp4281
g57
(g78
g59
NtRp4282
(dp4283
g62
(dp4284
g82
g83
ssg71
g4278
sg64
(lp4285
S'author'
p4286
asbag57
(g78
g59
NtRp4287
(dp4288
g62
(dp4289
g89
g90
ssg71
g4278
sg64
(lp4290
S':'
asbag57
(g78
g59
NtRp4291
(dp4292
g62
(dp4293
sg71
g4278
sg64
(lp4294
g57
(g58
g59
NtRp4295
(dp4296
g62
(dp4297
g70
I4
ssg71
g4291
sg64
(lp4298
S'Your Name <you@example.com>'
p4299
asbasbasbag57
(g73
g59
NtRp4300
(dp4301
g62
(dp4302
sg71
g4274
sg64
(lp4303
g57
(g78
g59
NtRp4304
(dp4305
g62
(dp4306
g82
g83
ssg71
g4300
sg64
(lp4307
S'copyright'
p4308
asbag57
(g78
g59
NtRp4309
(dp4310
g62
(dp4311
g89
g90
ssg71
g4300
sg64
(lp4312
S':'
asbag57
(g78
g59
NtRp4313
(dp4314
g62
(dp4315
sg71
g4300
sg64
(lp4316
g57
(g58
g59
NtRp4317
(dp4318
g62
(dp4319
g70
I4
ssg71
g4313
sg64
(lp4320
S'Copyright 2011'
p4321
asbasbasbag57
(g73
g59
NtRp4322
(dp4323
g62
(dp4324
sg71
g4274
sg64
(lp4325
g57
(g78
g59
NtRp4326
(dp4327
g62
(dp4328
g82
g83
ssg71
g4322
sg64
(lp4329
S'description'
p4330
asbag57
(g78
g59
NtRp4331
(dp4332
g62
(dp4333
g89
g90
ssg71
g4322
sg64
(lp4334
S':'
asbag57
(g78
g59
NtRp4335
(dp4336
g62
(dp4337
sg71
g4322
sg64
(lp4338
g57
(g58
g59
NtRp4339
(dp4340
g62
(dp4341
g70
I4
ssg71
g4335
sg64
(lp4342
S'a cool new app'
p4343
asbasbasbag57
(g73
g59
NtRp4344
(dp4345
g62
(dp4346
sg71
g4274
sg64
(lp4347
g57
(g78
g59
NtRp4348
(dp4349
g62
(dp4350
g82
g83
ssg71
g4344
sg64
(lp4351
S'generator'
p4352
asbag57
(g78
g59
NtRp4353
(dp4354
g62
(dp4355
g89
g90
ssg71
g4344
sg64
(lp4356
S':'
asbag57
(g78
g59
NtRp4357
(dp4358
g62
(dp4359
sg71
g4344
sg64
(lp4360
g57
(g58
g59
NtRp4361
(dp4362
g62
(dp4363
g70
I4
ssg71
g4357
sg64
(lp4364
S'Web2py Web Framework'
p4365
asbasbasbag57
(g73
g59
NtRp4366
(dp4367
g62
(dp4368
sg71
g4274
sg64
(lp4369
g57
(g78
g59
NtRp4370
(dp4371
g62
(dp4372
g82
g83
ssg71
g4366
sg64
(lp4373
S'keywords'
p4374
asbag57
(g78
g59
NtRp4375
(dp4376
g62
(dp4377
g89
g90
ssg71
g4366
sg64
(lp4378
S':'
asbag57
(g78
g59
NtRp4379
(dp4380
g62
(dp4381
sg71
g4366
sg64
(lp4382
g57
(g58
g59
NtRp4383
(dp4384
g62
(dp4385
g70
I4
ssg71
g4379
sg64
(lp4386
S'web2py, python, framework'
p4387
asbasbasbasbasbasbasbag57
(g73
g59
NtRp4388
(dp4389
g62
(dp4390
sg71
g3128
sg64
(lp4391
g57
(g78
g59
NtRp4392
(dp4393
g62
(dp4394
g82
g83
ssg71
g4388
sg64
(lp4395
S'postprocessing'
p4396
asbag57
(g78
g59
NtRp4397
(dp4398
g62
(dp4399
g89
g90
ssg71
g4388
sg64
(lp4400
S':'
asbag57
(g78
g59
NtRp4401
(dp4402
g62
(dp4403
sg71
g4388
sg64
(lp4404
g57
(g58
g59
NtRp4405
(dp4406
g62
(dp4407
g70
I5
ssg71
g4401
sg64
(lp4408
g57
(g66
g59
NtRp4409
(dp4410
g62
(dp4411
g70
I4
ssg71
Nsg64
(lp4412
sbasbasbasbag57
(g73
g59
NtRp4413
(dp4414
g62
(dp4415
sg71
g3128
sg64
(lp4416
g57
(g78
g59
NtRp4417
(dp4418
g62
(dp4419
g82
g83
ssg71
g4413
sg64
(lp4420
S'session_file'
p4421
asbag57
(g78
g59
NtRp4422
(dp4423
g62
(dp4424
g89
g90
ssg71
g4413
sg64
(lp4425
S':'
asbag57
(g78
g59
NtRp4426
(dp4427
g62
(dp4428
sg71
g4413
sg64
(lp4429
g57
(g58
g59
NtRp4430
(dp4431
g62
(dp4432
g70
I5
ssg71
g4426
sg64
(lp4433
S"<open file '/home/diego/web2py/applications/pesquisa/sessions/127.0.0.1-3573e6eb-3a18-4b45-bdeb-71a2b19e57a1', mode 'rb+' at 0x9046338>"
p4434
asbasbasbag57
(g73
g59
NtRp4435
(dp4436
g62
(dp4437
sg71
g3128
sg64
(lp4438
g57
(g78
g59
NtRp4439
(dp4440
g62
(dp4441
g82
g83
ssg71
g4435
sg64
(lp4442
S'session_filename'
p4443
asbag57
(g78
g59
NtRp4444
(dp4445
g62
(dp4446
g89
g90
ssg71
g4435
sg64
(lp4447
S':'
asbag57
(g78
g59
NtRp4448
(dp4449
g62
(dp4450
sg71
g4435
sg64
(lp4451
g57
(g58
g59
NtRp4452
(dp4453
g62
(dp4454
g70
I5
ssg71
g4448
sg64
(lp4455
S'/home/diego/web2py/applications/pesquisa/sessions/127.0.0.1-3573e6eb-3a18-4b45-bdeb-71a2b19e57a1'
p4456
asbasbasbag57
(g73
g59
NtRp4457
(dp4458
g62
(dp4459
sg71
g3128
sg64
(lp4460
g57
(g78
g59
NtRp4461
(dp4462
g62
(dp4463
g82
g83
ssg71
g4457
sg64
(lp4464
S'session_id'
p4465
asbag57
(g78
g59
NtRp4466
(dp4467
g62
(dp4468
g89
g90
ssg71
g4457
sg64
(lp4469
S':'
asbag57
(g78
g59
NtRp4470
(dp4471
g62
(dp4472
sg71
g4457
sg64
(lp4473
g57
(g58
g59
NtRp4474
(dp4475
g62
(dp4476
g70
I5
ssg71
g4470
sg64
(lp4477
S'127.0.0.1-3573e6eb-3a18-4b45-bdeb-71a2b19e57a1'
p4478
asbasbasbag57
(g73
g59
NtRp4479
(dp4480
g62
(dp4481
sg71
g3128
sg64
(lp4482
g57
(g78
g59
NtRp4483
(dp4484
g62
(dp4485
g82
g83
ssg71
g4479
sg64
(lp4486
S'session_id_name'
p4487
asbag57
(g78
g59
NtRp4488
(dp4489
g62
(dp4490
g89
g90
ssg71
g4479
sg64
(lp4491
S':'
asbag57
(g78
g59
NtRp4492
(dp4493
g62
(dp4494
sg71
g4479
sg64
(lp4495
g57
(g58
g59
NtRp4496
(dp4497
g62
(dp4498
g70
I5
ssg71
g4492
sg64
(lp4499
g3185
asbasbasbag57
(g73
g59
NtRp4500
(dp4501
g62
(dp4502
sg71
g3128
sg64
(lp4503
g57
(g78
g59
NtRp4504
(dp4505
g62
(dp4506
g82
g83
ssg71
g4500
sg64
(lp4507
S'session_locked'
p4508
asbag57
(g78
g59
NtRp4509
(dp4510
g62
(dp4511
g89
g90
ssg71
g4500
sg64
(lp4512
S':'
asbag57
(g78
g59
NtRp4513
(dp4514
g62
(dp4515
sg71
g4500
sg64
(lp4516
g57
(g58
g59
NtRp4517
(dp4518
g62
(dp4519
g70
I5
ssg71
g4513
sg64
(lp4520
g1700
asbasbasbag57
(g73
g59
NtRp4521
(dp4522
g62
(dp4523
sg71
g3128
sg64
(lp4524
g57
(g78
g59
NtRp4525
(dp4526
g62
(dp4527
g82
g83
ssg71
g4521
sg64
(lp4528
S'session_new'
p4529
asbag57
(g78
g59
NtRp4530
(dp4531
g62
(dp4532
g89
g90
ssg71
g4521
sg64
(lp4533
S':'
asbag57
(g78
g59
NtRp4534
(dp4535
g62
(dp4536
sg71
g4521
sg64
(lp4537
g57
(g58
g59
NtRp4538
(dp4539
g62
(dp4540
g70
I5
ssg71
g4534
sg64
(lp4541
g100
asbasbasbag57
(g73
g59
NtRp4542
(dp4543
g62
(dp4544
sg71
g3128
sg64
(lp4545
g57
(g78
g59
NtRp4546
(dp4547
g62
(dp4548
g82
g83
ssg71
g4542
sg64
(lp4549
S'status'
p4550
asbag57
(g78
g59
NtRp4551
(dp4552
g62
(dp4553
g89
g90
ssg71
g4542
sg64
(lp4554
S':'
asbag57
(g78
g59
NtRp4555
(dp4556
g62
(dp4557
sg71
g4542
sg64
(lp4558
g57
(g58
g59
NtRp4559
(dp4560
g62
(dp4561
g70
I5
ssg71
g4555
sg64
(lp4562
S'200'
p4563
asbasbasbag57
(g73
g59
NtRp4564
(dp4565
g62
(dp4566
sg71
g3128
sg64
(lp4567
g57
(g78
g59
NtRp4568
(dp4569
g62
(dp4570
g82
g83
ssg71
g4564
sg64
(lp4571
S'subtitle'
p4572
asbag57
(g78
g59
NtRp4573
(dp4574
g62
(dp4575
g89
g90
ssg71
g4564
sg64
(lp4576
S':'
asbag57
(g78
g59
NtRp4577
(dp4578
g62
(dp4579
sg71
g4564
sg64
(lp4580
g57
(g58
g59
NtRp4581
(dp4582
g62
(dp4583
g70
I5
ssg71
g4577
sg64
(lp4584
g3633
(S's\x0f\x00\x00\x00Personalize-me!'
tRp4585
asbasbasbag57
(g73
g59
NtRp4586
(dp4587
g62
(dp4588
sg71
g3128
sg64
(lp4589
g57
(g78
g59
NtRp4590
(dp4591
g62
(dp4592
g82
g83
ssg71
g4586
sg64
(lp4593
S'title'
p4594
asbag57
(g78
g59
NtRp4595
(dp4596
g62
(dp4597
g89
g90
ssg71
g4586
sg64
(lp4598
S':'
asbag57
(g78
g59
NtRp4599
(dp4600
g62
(dp4601
sg71
g4586
sg64
(lp4602
g57
(g58
g59
NtRp4603
(dp4604
g62
(dp4605
g70
I5
ssg71
g4599
sg64
(lp4606
S'Pesquisa'
p4607
asbasbasbag57
(g73
g59
NtRp4608
(dp4609
g62
(dp4610
sg71
g3128
sg64
(lp4611
g57
(g78
g59
NtRp4612
(dp4613
g62
(dp4614
g82
g83
ssg71
g4608
sg64
(lp4615
g2364
asbag57
(g78
g59
NtRp4616
(dp4617
g62
(dp4618
g89
g90
ssg71
g4608
sg64
(lp4619
S':'
asbag57
(g78
g59
NtRp4620
(dp4621
g62
(dp4622
sg71
g4608
sg64
(lp4623
g57
(g58
g59
NtRp4624
(dp4625
g62
(dp4626
g70
I5
ssg71
g4620
sg64
(lp4627
g2377
asbasbasbag57
(g73
g59
NtRp4628
(dp4629
g62
(dp4630
sg71
g3128
sg64
(lp4631
g57
(g78
g59
NtRp4632
(dp4633
g62
(dp4634
g82
g83
ssg71
g4628
sg64
(lp4635
S'view'
p4636
asbag57
(g78
g59
NtRp4637
(dp4638
g62
(dp4639
g89
g90
ssg71
g4628
sg64
(lp4640
S':'
asbag57
(g78
g59
NtRp4641
(dp4642
g62
(dp4643
sg71
g4628
sg64
(lp4644
g57
(g58
g59
NtRp4645
(dp4646
g62
(dp4647
g70
I5
ssg71
g4641
sg64
(lp4648
S'default/resultado.html'
p4649
asbasbasbasbasbsS'locals'
p4650
(dp4651
S'Service'
p4652
S"<class 'gluon.tools.Service'>"
p4653
sS'OBJECT'
p4654
S"<class 'gluon.html.OBJECT'>"
p4655
sS'SQLDB'
p4656
S"<class 'gluon.dal.DAL'>"
p4657
sg3110
S"<Storage {'_Session__hash': '\\x8e\\xfbi\\x11\\x07\\x.../None]': '756ae9f7-4697-48bd-b33e-5ccc9425712a'}>"
p4658
sS'LINK'
p4659
S"<class 'gluon.html.LINK'>"
p4660
sS'BR'
p4661
S"<class 'gluon.html.BR'>"
p4662
sS'local_import'
p4663
S'<function <lambda>>'
p4664
sS'OPTGROUP'
p4665
S"<class 'gluon.html.OPTGROUP'>"
p4666
sS'PRE'
p4667
S"<class 'gluon.html.PRE'>"
p4668
sS'IS_INT_IN_RANGE'
p4669
S"<class 'gluon.validators.IS_INT_IN_RANGE'>"
p4670
sS'IS_LOWER'
p4671
S"<class 'gluon.validators.IS_LOWER'>"
p4672
sS'IS_STRONG'
p4673
S"<class 'gluon.validators.IS_STRONG'>"
p4674
sS'cache'
p4675
S'<gluon.cache.Cache object>'
p4676
sS'IS_IN_DB'
p4677
S"<class 'gluon.validators.IS_IN_DB'>"
p4678
sS'TAG'
p4679
S'<gluon.html.__TAG__ object>'
p4680
sS'SQLField'
p4681
S"<class 'gluon.dal.Field'>"
p4682
sS'mail'
p4683
S'<gluon.tools.Mail object>'
p4684
sS'BODY'
p4685
S"<class 'gluon.html.BODY'>"
p4686
sS'IS_DATE_IN_RANGE'
p4687
S"<class 'gluon.validators.IS_DATE_IN_RANGE'>"
p4688
sS'TH'
p4689
S"<class 'gluon.html.TH'>"
p4690
sS'URL'
p4691
S'<function URL>'
p4692
sS'__file__'
p4693
S"'/home/diego/web2py/applications/pesquisa/views/default/resultado.html'"
p4694
sS'db'
p4695
S"<DAL {'auth_event': <Table {'origin': <gluon.dal... '_id': <gluon.dal.Field object at 0x914a4cc>}>}>"
p4696
sS'auth'
p4697
S'<gluon.tools.Auth object>'
p4698
sS'P'
S"<class 'gluon.html.P'>"
p4699
sS'TFOOT'
p4700
S"<class 'gluon.html.TFOOT'>"
p4701
sS'XHTML'
p4702
S"<class 'gluon.html.XHTML'>"
p4703
sS'ON'
p4704
g1700
sS'OL'
p4705
S"<class 'gluon.html.OL'>"
p4706
sS'TEXTAREA'
p4707
S"<class 'gluon.html.TEXTAREA'>"
p4708
sS'MENU'
p4709
S"<class 'gluon.html.MENU'>"
p4710
sS'dic'
p4711
S"{'AC': {'junior': 0, 'outros': 0, 'pleno': 0, 'senior': 0}, 'AL': {'junior': 0, 'outros': 0, 'pleno': 0, 'senior': 0}, 'AM': {'junior': 0, 'outros': 0, 'pleno': 0, 'senior': 0}, 'AP': {'junior': 0, 'outros': 0, 'pleno': 0, 'senior': 0}, 'BA': {'junior': 0, 'outros': 0, 'pleno': 0, 'senior': 0}, 'CE': {'junior': 0, 'outros': 0, 'pleno': 0, 'senior': 0}, 'DF': {'junior': 0, 'outros': 0, 'pleno': 0, 'senior': 0}, 'ES': {'junior': 0, 'outros': 0, 'pleno': 0, 'senior': 0}, 'GO': {'junior': 0, 'outros': 0, 'pleno': 0, 'senior': 0}, 'MA': {'junior': 0, 'outros': 0, 'pleno': 0, 'senior': 0}, ...}"
p4712
sS'dic2'
p4713
g45
sS'IS_IMAGE'
p4714
S"<class 'gluon.validators.IS_IMAGE'>"
p4715
sS'LOAD'
p4716
S'<function LOAD>'
p4717
sS'CODE'
p4718
S"<class 'gluon.html.CODE'>"
p4719
sS'HTTP'
p4720
S"<class 'gluon.http.HTTP'>"
p4721
sS'HR'
p4722
S"<class 'gluon.html.HR'>"
p4723
sS'IS_DATETIME'
p4724
S"<class 'gluon.validators.IS_DATETIME'>"
p4725
sS'HEAD'
p4726
S"<class 'gluon.html.HEAD'>"
p4727
sS'LABEL'
p4728
S"<class 'gluon.html.LABEL'>"
p4729
sS'META'
p4730
S"<class 'gluon.html.META'>"
p4731
sS'plugins'
p4732
S'<gluon.tools.PluginManager object>'
p4733
sS'state_list'
p4734
S"['AC', 'AL', 'AP', 'AM', 'BA', 'CE', 'DF', 'ES', 'GO', 'MA', 'MT', 'MS', 'MG', 'PA', 'PB', 'PR', 'PE', 'PI', 'RJ', 'RN', ...]"
p4735
sS'SELECT'
p4736
S"<class 'gluon.html.SELECT'>"
p4737
sS'CENTER'
p4738
S"<class 'gluon.html.CENTER'>"
p4739
sS'prettydate'
p4740
S'<function prettydate>'
p4741
sS'Crud'
p4742
S"<class 'gluon.tools.Crud'>"
p4743
sS'Auth'
p4744
S"<class 'gluon.tools.Auth'>"
p4745
sS'IS_EQUAL_TO'
p4746
S"<class 'gluon.validators.IS_EQUAL_TO'>"
p4747
sS'state'
p4748
S"'AC'"
p4749
sS'HTML'
p4750
S"<class 'gluon.html.HTML'>"
p4751
sS'SQLFORM'
p4752
S"<class 'gluon.sqlhtml.SQLFORM'>"
p4753
sS'EM'
p4754
S"<class 'gluon.html.EM'>"
p4755
sS'redirect'
p4756
S'<function redirect>'
p4757
sS'FIELDSET'
p4758
S"<class 'gluon.html.FIELDSET'>"
p4759
sS'__builtins__'
p4760
S"{'ArithmeticError': <type 'exceptions.ArithmeticError'>, 'AssertionError': <type 'exceptions.AssertionError'>, 'AttributeError': <type 'exceptions.AttributeError'>, 'BaseException': <type 'exceptions.BaseException'>, 'BufferError': <type 'exceptions.BufferError'>, 'BytesWarning': <type 'exceptions.BytesWarning'>, 'DeprecationWarning': <type 'exceptions.DeprecationWarning'>, 'EOFError': <type 'exceptions.EOFError'>, 'Ellipsis': Ellipsis, 'EnvironmentError': <type 'exceptions.EnvironmentError'>, ...}"
p4761
sS'embed64'
p4762
S'<function embed64>'
p4763
sS'IS_LIST_OF'
p4764
S"<class 'gluon.validators.IS_LIST_OF'>"
p4765
sS'INPUT'
p4766
S"<class 'gluon.html.INPUT'>"
p4767
sS'EMBED'
p4768
S"<class 'gluon.html.EMBED'>"
p4769
sS'_'
S'<function _>'
p4770
sS'H2'
p4771
S"<class 'gluon.html.H2'>"
p4772
sS'H3'
p4773
S"<class 'gluon.html.H3'>"
p4774
sS'BUTTON'
p4775
S"<class 'gluon.html.BUTTON'>"
p4776
sS'H1'
p4777
S"<class 'gluon.html.H1'>"
p4778
sS'H6'
p4779
S"<class 'gluon.html.H6'>"
p4780
sS'H4'
p4781
S"<class 'gluon.html.H4'>"
p4782
sS'H5'
p4783
S"<class 'gluon.html.H5'>"
p4784
sS'UL'
p4785
S"<class 'gluon.html.UL'>"
p4786
sS'IS_UPPER'
p4787
S"<class 'gluon.validators.IS_UPPER'>"
p4788
sS'xmlescape'
p4789
S'<function xmlescape>'
p4790
sS'IS_TIME'
p4791
S"<class 'gluon.validators.IS_TIME'>"
p4792
sS'level_list'
p4793
S"['Junior', 'Pleno', 'Senior', 'Outro']"
p4794
sS'Campos'
p4795
S"<Table {'_db': <DAL {'auth_event': <Table {'orig...e, '_id': <gluon.dal.Field object at 0x914834c>}>"
p4796
sS'OPTION'
p4797
S"<class 'gluon.html.OPTION'>"
p4798
sS'TITLE'
p4799
S"<class 'gluon.html.TITLE'>"
p4800
sS'CRYPT'
p4801
S"<class 'gluon.validators.CRYPT'>"
p4802
sS'IS_EMPTY_OR'
p4803
S"<class 'gluon.validators.IS_EMPTY_OR'>"
p4804
sS'MARKMIN'
p4805
S"<class 'gluon.html.MARKMIN'>"
p4806
sS'COL'
p4807
S"<class 'gluon.html.COL'>"
p4808
sS'user_id'
p4809
S'None'
p4810
sS'service'
p4811
S'<gluon.tools.Service object>'
p4812
sS'SCRIPT'
p4813
S"<class 'gluon.html.SCRIPT'>"
p4814
sS'TABLE'
p4815
S"<class 'gluon.html.TABLE'>"
p4816
sS'user_name'
p4817
S'None'
p4818
sS'IS_IPV4'
p4819
S"<class 'gluon.validators.IS_IPV4'>"
p4820
sS'IS_LENGTH'
p4821
S"<class 'gluon.validators.IS_LENGTH'>"
p4822
sS'XML'
p4823
S"<class 'gluon.html.XML'>"
p4824
sS'B'
S"<class 'gluon.html.B'>"
p4825
sS'IMG'
p4826
S"<class 'gluon.html.IMG'>"
p4827
sS'SQLTABLE'
p4828
S"<class 'gluon.sqlhtml.SQLTABLE'>"
p4829
sS'IS_MATCH'
p4830
S"<class 'gluon.validators.IS_MATCH'>"
p4831
sS'IS_ALPHANUMERIC'
p4832
S"<class 'gluon.validators.IS_ALPHANUMERIC'>"
p4833
sS'SPAN'
p4834
S"<class 'gluon.html.SPAN'>"
p4835
sS'IS_SLUG'
p4836
S"<class 'gluon.validators.IS_SLUG'>"
p4837
sS'CLEANUP'
p4838
S"<class 'gluon.validators.CLEANUP'>"
p4839
sS'IS_DATE'
p4840
S"<class 'gluon.validators.IS_DATE'>"
p4841
sS'IS_EMAIL'
p4842
S"<class 'gluon.validators.IS_EMAIL'>"
p4843
sS'IS_NOT_EMPTY'
p4844
S"<class 'gluon.validators.IS_NOT_EMPTY'>"
p4845
sg56
S"<Storage {'body': <cStringIO.StringO object at 0..._vars': <Storage {}>, 'post_vars': <Storage {}>}>"
p4846
sS'BEAUTIFY'
p4847
S"<class 'gluon.html.BEAUTIFY'>"
p4848
sS'frame_list'
p4849
S"['Django', 'Pylons', 'Web2Py', 'Plone', 'Outros']"
p4850
sS'TBODY'
p4851
S"<class 'gluon.html.TBODY'>"
p4852
sS'CAT'
p4853
S"<class 'gluon.html.CAT'>"
p4854
sS'Field'
p4855
S"<class 'gluon.dal.Field'>"
p4856
sS'Mail'
p4857
S"<class 'gluon.tools.Mail'>"
p4858
sS'DIV'
p4859
S"<class 'gluon.html.DIV'>"
p4860
sS'LEGEND'
p4861
S"<class 'gluon.html.LEGEND'>"
p4862
sS'COLGROUP'
p4863
S"<class 'gluon.html.COLGROUP'>"
p4864
sS'DAL'
p4865
S"<class 'gluon.dal.DAL'>"
p4866
sS'TT'
p4867
S"<class 'gluon.html.TT'>"
p4868
sS'TR'
p4869
S"<class 'gluon.html.TR'>"
p4870
sS'LI'
p4871
S"<class 'gluon.html.LI'>"
p4872
sS'IFRAME'
p4873
S"<class 'gluon.html.IFRAME'>"
p4874
sS'TD'
p4875
S"<class 'gluon.html.TD'>"
p4876
sS'PluginManager'
p4877
S"<class 'gluon.tools.PluginManager'>"
p4878
sS'IS_URL'
p4879
S"<class 'gluon.validators.IS_URL'>"
p4880
sS'A'
S"<class 'gluon.html.A'>"
p4881
sS'STYLE'
p4882
S"<class 'gluon.html.STYLE'>"
p4883
sS'IS_DATETIME_IN_RANGE'
p4884
S"<class 'gluon.validators.IS_DATETIME_IN_RANGE'>"
p4885
sS'FORM'
p4886
S"<class 'gluon.html.FORM'>"
p4887
sS'I'
S"<class 'gluon.html.I'>"
p4888
sS'crud'
p4889
S'<gluon.tools.Crud object>'
p4890
sS'IS_NOT_IN_DB'
p4891
S"<class 'gluon.validators.IS_NOT_IN_DB'>"
p4892
sS'type_list'
p4893
S"['clt', 'pj']"
p4894
sg3123
S"<Storage {'body': <cStringIO.StringO object at 0...at 0x8efbdbc>, 'view': 'default/resultado.html'}>"
p4895
sS'THEAD'
p4896
S"<class 'gluon.html.THEAD'>"
p4897
sS'IS_NULL_OR'
p4898
S"<class 'gluon.validators.IS_EMPTY_OR'>"
p4899
sS'IS_FLOAT_IN_RANGE'
p4900
S"<class 'gluon.validators.IS_FLOAT_IN_RANGE'>"
p4901
sS'IS_EXPR'
p4902
S"<class 'gluon.validators.IS_EXPR'>"
p4903
sS'T'
S'<gluon.languages.translator object>'
p4904
sS'IS_IN_SET'
p4905
S"<class 'gluon.validators.IS_IN_SET'>"
p4906
sS'IS_UPLOAD_FILENAME'
p4907
S"<class 'gluon.validators.IS_UPLOAD_FILENAME'>"
p4908
sS'IS_DECIMAL_IN_RANGE'
p4909
S"<class 'gluon.validators.IS_DECIMAL_IN_RANGE'>"
p4910
sssS'traceback'
p4911
S'Traceback (most recent call last):\n  File "/home/diego/web2py/gluon/restricted.py", line 204, in restricted\n    exec ccode in environment\n  File "/home/diego/web2py/applications/pesquisa/views/default/resultado.html", line 21, in <module>\n    <tr> <th>Estado</th><th>Media Salario Jr</th> <th>Media Salario Pleno</th> <th>Media Salario Senior</th> <th>Media Salario Outros</th></tr>\nKeyError: \'AC\'\n'
p4912
s.