(dp1
S'nivel'
p2
(dp3
S'type'
p4
S'string'
p5
sS'sortable'
p6
I4
sS'sql'
p7
S'CHAR(100)'
p8
ssS'tipo'
p9
(dp10
g4
g5
sg6
I7
sg7
S'CHAR(100)'
p11
ssS'framework'
p12
(dp13
g4
g5
sg6
I6
sg7
S'CHAR(100)'
p14
ssS'cidade'
p15
(dp16
g4
g5
sg6
I3
sg7
S'CHAR(100)'
p17
ssS'estado'
p18
(dp19
g4
g5
sg6
I2
sg7
S'CHAR(300)'
p20
ssS'salario'
p21
(dp22
g4
S'double'
p23
sg6
I5
sg7
S'DOUBLE'
p24
ssS'id'
p25
(dp26
g4
S'id'
p27
sg6
I1
sg7
S'INTEGER PRIMARY KEY AUTOINCREMENT'
p28
ss.